
EE_138_Lab_2_Task2.elf:     file format elf32-littlearm

Sections:
Idx Name          Size      VMA       LMA       File off  Algn
  0 .text         000037d8  00000000  00000000  00010000  2**3
                  CONTENTS, ALLOC, LOAD, READONLY, CODE
  1 .relocate     00000004  20000000  000037d8  00020000  2**2
                  CONTENTS, ALLOC, LOAD, DATA
  2 .bss          00000268  20000004  000037dc  00020004  2**2
                  ALLOC
  3 .stack        00002004  2000026c  00003a44  00020004  2**0
                  ALLOC
  4 .ARM.attributes 00000028  00000000  00000000  00020004  2**0
                  CONTENTS, READONLY
  5 .comment      00000059  00000000  00000000  0002002c  2**0
                  CONTENTS, READONLY
  6 .debug_info   0000343f  00000000  00000000  00020085  2**0
                  CONTENTS, READONLY, DEBUGGING
  7 .debug_abbrev 00000461  00000000  00000000  000234c4  2**0
                  CONTENTS, READONLY, DEBUGGING
  8 .debug_loc    0000012b  00000000  00000000  00023925  2**0
                  CONTENTS, READONLY, DEBUGGING
  9 .debug_aranges 00000060  00000000  00000000  00023a50  2**0
                  CONTENTS, READONLY, DEBUGGING
 10 .debug_ranges 00000040  00000000  00000000  00023ab0  2**0
                  CONTENTS, READONLY, DEBUGGING
 11 .debug_macro  000009cd  00000000  00000000  00023af0  2**0
                  CONTENTS, READONLY, DEBUGGING
 12 .debug_line   000010ff  00000000  00000000  000244bd  2**0
                  CONTENTS, READONLY, DEBUGGING
 13 .debug_str    0005b4a8  00000000  00000000  000255bc  2**0
                  CONTENTS, READONLY, DEBUGGING
 14 .debug_frame  000004c8  00000000  00000000  00080a64  2**2
                  CONTENTS, READONLY, DEBUGGING

Disassembly of section .text:

00000000 <_sfixed>:
       0:	20002270 	.word	0x20002270
       4:	00000109 	.word	0x00000109
       8:	00000105 	.word	0x00000105
       c:	00000105 	.word	0x00000105
	...
      2c:	00000105 	.word	0x00000105
	...
      38:	00000105 	.word	0x00000105
      3c:	00000105 	.word	0x00000105
      40:	00000105 	.word	0x00000105
      44:	00000105 	.word	0x00000105
      48:	00000105 	.word	0x00000105
      4c:	00000105 	.word	0x00000105
      50:	00000105 	.word	0x00000105
      54:	00000105 	.word	0x00000105
      58:	00000105 	.word	0x00000105
      5c:	00000105 	.word	0x00000105
      60:	00000105 	.word	0x00000105
      64:	00000105 	.word	0x00000105
      68:	00000105 	.word	0x00000105
      6c:	00000105 	.word	0x00000105
      70:	00000105 	.word	0x00000105
      74:	00000105 	.word	0x00000105
      78:	00000105 	.word	0x00000105
      7c:	00000105 	.word	0x00000105
      80:	00000105 	.word	0x00000105
      84:	00000105 	.word	0x00000105
      88:	00000105 	.word	0x00000105
      8c:	00000105 	.word	0x00000105
      90:	00000105 	.word	0x00000105
      94:	00000105 	.word	0x00000105
      98:	00000105 	.word	0x00000105
      9c:	00000105 	.word	0x00000105
      a0:	00000105 	.word	0x00000105

000000a4 <__do_global_dtors_aux>:
      a4:	b510      	push	{r4, lr}
      a6:	4c06      	ldr	r4, [pc, #24]	; (c0 <__do_global_dtors_aux+0x1c>)
      a8:	7823      	ldrb	r3, [r4, #0]
      aa:	2b00      	cmp	r3, #0
      ac:	d107      	bne.n	be <__do_global_dtors_aux+0x1a>
      ae:	4b05      	ldr	r3, [pc, #20]	; (c4 <__do_global_dtors_aux+0x20>)
      b0:	2b00      	cmp	r3, #0
      b2:	d002      	beq.n	ba <__do_global_dtors_aux+0x16>
      b4:	4804      	ldr	r0, [pc, #16]	; (c8 <__do_global_dtors_aux+0x24>)
      b6:	e000      	b.n	ba <__do_global_dtors_aux+0x16>
      b8:	bf00      	nop
      ba:	2301      	movs	r3, #1
      bc:	7023      	strb	r3, [r4, #0]
      be:	bd10      	pop	{r4, pc}
      c0:	20000004 	.word	0x20000004
      c4:	00000000 	.word	0x00000000
      c8:	000037d8 	.word	0x000037d8

000000cc <frame_dummy>:
      cc:	4b08      	ldr	r3, [pc, #32]	; (f0 <frame_dummy+0x24>)
      ce:	b510      	push	{r4, lr}
      d0:	2b00      	cmp	r3, #0
      d2:	d003      	beq.n	dc <frame_dummy+0x10>
      d4:	4907      	ldr	r1, [pc, #28]	; (f4 <frame_dummy+0x28>)
      d6:	4808      	ldr	r0, [pc, #32]	; (f8 <frame_dummy+0x2c>)
      d8:	e000      	b.n	dc <frame_dummy+0x10>
      da:	bf00      	nop
      dc:	4807      	ldr	r0, [pc, #28]	; (fc <frame_dummy+0x30>)
      de:	6803      	ldr	r3, [r0, #0]
      e0:	2b00      	cmp	r3, #0
      e2:	d100      	bne.n	e6 <frame_dummy+0x1a>
      e4:	bd10      	pop	{r4, pc}
      e6:	4b06      	ldr	r3, [pc, #24]	; (100 <frame_dummy+0x34>)
      e8:	2b00      	cmp	r3, #0
      ea:	d0fb      	beq.n	e4 <frame_dummy+0x18>
      ec:	4798      	blx	r3
      ee:	e7f9      	b.n	e4 <frame_dummy+0x18>
      f0:	00000000 	.word	0x00000000
      f4:	20000008 	.word	0x20000008
      f8:	000037d8 	.word	0x000037d8
      fc:	000037d8 	.word	0x000037d8
     100:	00000000 	.word	0x00000000

00000104 <Dummy_Handler>:

/**
 * \brief Default interrupt handler for unused IRQs.
 */
void Dummy_Handler(void)
{
     104:	e7fe      	b.n	104 <Dummy_Handler>
     106:	46c0      	nop			; (mov r8, r8)

00000108 <Reset_Handler>:
/**
 * \brief This is the code that gets called on processor reset.
 * To initialize the device, and call the main() routine.
 */
void Reset_Handler(void)
{
     108:	b510      	push	{r4, lr}

        /* Initialize the relocate segment */
        pSrc = &_etext;
        pDest = &_srelocate;

        if (pSrc != pDest) {
     10a:	4b1d      	ldr	r3, [pc, #116]	; (180 <Reset_Handler+0x78>)
     10c:	4a1d      	ldr	r2, [pc, #116]	; (184 <Reset_Handler+0x7c>)
     10e:	429a      	cmp	r2, r3
     110:	d003      	beq.n	11a <Reset_Handler+0x12>
                for (; pDest < &_erelocate;) {
     112:	4b1d      	ldr	r3, [pc, #116]	; (188 <Reset_Handler+0x80>)
     114:	4a1a      	ldr	r2, [pc, #104]	; (180 <Reset_Handler+0x78>)
     116:	429a      	cmp	r2, r3
     118:	d304      	bcc.n	124 <Reset_Handler+0x1c>
                        *pDest++ = *pSrc++;
                }
        }

        /* Clear the zero segment */
        for (pDest = &_szero; pDest < &_ezero;) {
     11a:	4b1c      	ldr	r3, [pc, #112]	; (18c <Reset_Handler+0x84>)
     11c:	4a1c      	ldr	r2, [pc, #112]	; (190 <Reset_Handler+0x88>)
     11e:	429a      	cmp	r2, r3
     120:	d310      	bcc.n	144 <Reset_Handler+0x3c>
     122:	e01e      	b.n	162 <Reset_Handler+0x5a>
     124:	4a1b      	ldr	r2, [pc, #108]	; (194 <Reset_Handler+0x8c>)
     126:	4b18      	ldr	r3, [pc, #96]	; (188 <Reset_Handler+0x80>)
     128:	3303      	adds	r3, #3
     12a:	1a9b      	subs	r3, r3, r2
     12c:	089b      	lsrs	r3, r3, #2
     12e:	3301      	adds	r3, #1
     130:	009b      	lsls	r3, r3, #2
        /* Initialize the relocate segment */
        pSrc = &_etext;
        pDest = &_srelocate;

        if (pSrc != pDest) {
                for (; pDest < &_erelocate;) {
     132:	2200      	movs	r2, #0
                        *pDest++ = *pSrc++;
     134:	4812      	ldr	r0, [pc, #72]	; (180 <Reset_Handler+0x78>)
     136:	4913      	ldr	r1, [pc, #76]	; (184 <Reset_Handler+0x7c>)
     138:	588c      	ldr	r4, [r1, r2]
     13a:	5084      	str	r4, [r0, r2]
     13c:	3204      	adds	r2, #4
        /* Initialize the relocate segment */
        pSrc = &_etext;
        pDest = &_srelocate;

        if (pSrc != pDest) {
                for (; pDest < &_erelocate;) {
     13e:	429a      	cmp	r2, r3
     140:	d1fa      	bne.n	138 <Reset_Handler+0x30>
     142:	e7ea      	b.n	11a <Reset_Handler+0x12>
     144:	4a14      	ldr	r2, [pc, #80]	; (198 <Reset_Handler+0x90>)
     146:	4b11      	ldr	r3, [pc, #68]	; (18c <Reset_Handler+0x84>)
     148:	3303      	adds	r3, #3
     14a:	1a9b      	subs	r3, r3, r2
     14c:	089b      	lsrs	r3, r3, #2
     14e:	3301      	adds	r3, #1
     150:	009b      	lsls	r3, r3, #2
                        *pDest++ = *pSrc++;
                }
        }

        /* Clear the zero segment */
        for (pDest = &_szero; pDest < &_ezero;) {
     152:	2200      	movs	r2, #0
                *pDest++ = 0;
     154:	480e      	ldr	r0, [pc, #56]	; (190 <Reset_Handler+0x88>)
     156:	2100      	movs	r1, #0
     158:	1814      	adds	r4, r2, r0
     15a:	6021      	str	r1, [r4, #0]
     15c:	3204      	adds	r2, #4
                        *pDest++ = *pSrc++;
                }
        }

        /* Clear the zero segment */
        for (pDest = &_szero; pDest < &_ezero;) {
     15e:	429a      	cmp	r2, r3
     160:	d1fa      	bne.n	158 <Reset_Handler+0x50>
                *pDest++ = 0;
        }

        /* Set the vector table base address */
        pSrc = (uint32_t *) & _sfixed;
        SCB->VTOR = ((uint32_t) pSrc & SCB_VTOR_TBLOFF_Msk);
     162:	4a0e      	ldr	r2, [pc, #56]	; (19c <Reset_Handler+0x94>)
     164:	21ff      	movs	r1, #255	; 0xff
     166:	4b0e      	ldr	r3, [pc, #56]	; (1a0 <Reset_Handler+0x98>)
     168:	438b      	bics	r3, r1
     16a:	6093      	str	r3, [r2, #8]

        /* Overwriting the default value of the NVMCTRL.CTRLB.MANW bit (errata reference 13134) */
        NVMCTRL->CTRLB.bit.MANW = 1;
     16c:	4a0d      	ldr	r2, [pc, #52]	; (1a4 <Reset_Handler+0x9c>)
     16e:	6851      	ldr	r1, [r2, #4]
     170:	2380      	movs	r3, #128	; 0x80
     172:	430b      	orrs	r3, r1
     174:	6053      	str	r3, [r2, #4]

        /* Initialize the C library */
        __libc_init_array();
     176:	4b0c      	ldr	r3, [pc, #48]	; (1a8 <Reset_Handler+0xa0>)
     178:	4798      	blx	r3

        /* Branch to main function */
        main();
     17a:	4b0c      	ldr	r3, [pc, #48]	; (1ac <Reset_Handler+0xa4>)
     17c:	4798      	blx	r3
     17e:	e7fe      	b.n	17e <Reset_Handler+0x76>
     180:	20000000 	.word	0x20000000
     184:	000037d8 	.word	0x000037d8
     188:	20000004 	.word	0x20000004
     18c:	2000026c 	.word	0x2000026c
     190:	20000004 	.word	0x20000004
     194:	20000004 	.word	0x20000004
     198:	20000008 	.word	0x20000008
     19c:	e000ed00 	.word	0xe000ed00
     1a0:	00000000 	.word	0x00000000
     1a4:	41004000 	.word	0x41004000
     1a8:	00003511 	.word	0x00003511
     1ac:	000002a5 	.word	0x000002a5

000001b0 <configure_dac_clock>:

}

void configure_dac_clock(void)
{
	PM->APBCMASK.reg |= (1u << 18); 			// PM_APBCMASK DAC is in the bit[18] position
     1b0:	4a07      	ldr	r2, [pc, #28]	; (1d0 <configure_dac_clock+0x20>)
     1b2:	6a13      	ldr	r3, [r2, #32]
     1b4:	2180      	movs	r1, #128	; 0x80
     1b6:	02c9      	lsls	r1, r1, #11
     1b8:	430b      	orrs	r3, r1
     1ba:	6213      	str	r3, [r2, #32]
	
	uint32_t temp = 0x1A; 			// ID for DAC is 0x1A (see table 14-2)
	temp |= 0<<8; 					// Selection Generic clock generator 0
	GCLK->CLKCTRL.reg = temp; 			// Setup in the CLKCTRL register
     1bc:	4b05      	ldr	r3, [pc, #20]	; (1d4 <configure_dac_clock+0x24>)
     1be:	221a      	movs	r2, #26
     1c0:	805a      	strh	r2, [r3, #2]
	GCLK->CLKCTRL.reg |= 0x1u << 14; 		// enable it.
     1c2:	8859      	ldrh	r1, [r3, #2]
     1c4:	2280      	movs	r2, #128	; 0x80
     1c6:	01d2      	lsls	r2, r2, #7
     1c8:	430a      	orrs	r2, r1
     1ca:	805a      	strh	r2, [r3, #2]
}
     1cc:	4770      	bx	lr
     1ce:	46c0      	nop			; (mov r8, r8)
     1d0:	40000400 	.word	0x40000400
     1d4:	40000c00 	.word	0x40000c00

000001d8 <configure_dac>:

void configure_dac(void)
{
     1d8:	b510      	push	{r4, lr}
	//set pin as output for the dac
	Port *ports = PORT_INSTS;
	PortGroup *por = &(ports->Group[0]);
	
	por->PINCFG[2].bit.PMUXEN = 0x1;		// set to correct pin configuration
     1da:	4b13      	ldr	r3, [pc, #76]	; (228 <configure_dac+0x50>)
     1dc:	2042      	movs	r0, #66	; 0x42
     1de:	5c19      	ldrb	r1, [r3, r0]
     1e0:	2201      	movs	r2, #1
     1e2:	4311      	orrs	r1, r2
     1e4:	5419      	strb	r1, [r3, r0]
	por->PMUX[1].bit.PMUXE = 0x1;			// set to correct peripheral
     1e6:	3811      	subs	r0, #17
     1e8:	5c19      	ldrb	r1, [r3, r0]
     1ea:	240f      	movs	r4, #15
     1ec:	43a1      	bics	r1, r4
     1ee:	430a      	orrs	r2, r1
     1f0:	541a      	strb	r2, [r3, r0]


	while (dac -> STATUS.reg & DAC_STATUS_SYNCBUSY) {
     1f2:	4b0e      	ldr	r3, [pc, #56]	; (22c <configure_dac+0x54>)
     1f4:	681a      	ldr	r2, [r3, #0]
     1f6:	79d3      	ldrb	r3, [r2, #7]
     1f8:	b25b      	sxtb	r3, r3
     1fa:	2b00      	cmp	r3, #0
     1fc:	dbfb      	blt.n	1f6 <configure_dac+0x1e>
		/* wait until the synchronization is complete */
	}

	/* Set reference voltage with CTRLB */ // Page 550
		dac -> CTRLB.bit.REFSEL = 0x1; // set reference voltage to AVcc, Vcc is 3.3V
     1fe:	7853      	ldrb	r3, [r2, #1]
     200:	213f      	movs	r1, #63	; 0x3f
     202:	400b      	ands	r3, r1
     204:	2140      	movs	r1, #64	; 0x40
     206:	430b      	orrs	r3, r1
     208:	7053      	strb	r3, [r2, #1]

	while (dac -> STATUS.reg & DAC_STATUS_SYNCBUSY) {
     20a:	4b08      	ldr	r3, [pc, #32]	; (22c <configure_dac+0x54>)
     20c:	681a      	ldr	r2, [r3, #0]
     20e:	79d3      	ldrb	r3, [r2, #7]
     210:	b25b      	sxtb	r3, r3
     212:	2b00      	cmp	r3, #0
     214:	dbfb      	blt.n	20e <configure_dac+0x36>
		/* Wait until the synchronization is complete */
	}

	/* Enable the module with CTRLA */
		dac -> CTRLA.reg= 0x2; // set the enable bit (bit[1]) of the CTRLA register
     216:	2302      	movs	r3, #2
     218:	7013      	strb	r3, [r2, #0]
	/* Enable selected output with CTRLB*/
		dac -> CTRLB.bit.EOEN = 0x1; // set the external output bit
     21a:	4b04      	ldr	r3, [pc, #16]	; (22c <configure_dac+0x54>)
     21c:	681a      	ldr	r2, [r3, #0]
     21e:	7851      	ldrb	r1, [r2, #1]
     220:	2301      	movs	r3, #1
     222:	430b      	orrs	r3, r1
     224:	7053      	strb	r3, [r2, #1]
}
     226:	bd10      	pop	{r4, pc}
     228:	41004400 	.word	0x41004400
     22c:	20000000 	.word	0x20000000

00000230 <Simple_Clk_Init>:
void Simple_Clk_Init(void)
{
	/* Various bits in the INTFLAG register can be set to one at startup.
	   This will ensure that these bits are cleared */
	
	SYSCTRL->INTFLAG.reg = SYSCTRL_INTFLAG_BOD33RDY | SYSCTRL_INTFLAG_BOD33DET |
     230:	4b16      	ldr	r3, [pc, #88]	; (28c <Simple_Clk_Init+0x5c>)
     232:	22c2      	movs	r2, #194	; 0xc2
     234:	00d2      	lsls	r2, r2, #3
     236:	609a      	str	r2, [r3, #8]
static inline void system_flash_set_waitstates(uint8_t wait_states)
{
	Assert(NVMCTRL_CTRLB_RWS((uint32_t)wait_states) ==
			((uint32_t)wait_states << NVMCTRL_CTRLB_RWS_Pos));

	NVMCTRL->CTRLB.bit.RWS = wait_states;
     238:	4915      	ldr	r1, [pc, #84]	; (290 <Simple_Clk_Init+0x60>)
     23a:	684a      	ldr	r2, [r1, #4]
     23c:	201e      	movs	r0, #30
     23e:	4382      	bics	r2, r0
     240:	604a      	str	r2, [r1, #4]
			SYSCTRL_INTFLAG_DFLLRDY;
			
	system_flash_set_waitstates(0);  		//Clock_flash wait state = 0

	SYSCTRL_OSC8M_Type temp = SYSCTRL->OSC8M;      	/* for OSC8M initialization  */
     242:	6a1a      	ldr	r2, [r3, #32]

	temp.bit.PRESC    = 0;    			// no divide, i.e., set clock=8Mhz  (see page 170)
	temp.bit.ONDEMAND = 1;    			//  On-demand is true
	temp.bit.RUNSTDBY = 0;    			//  Standby is false
	
	SYSCTRL->OSC8M = temp;
     244:	2140      	movs	r1, #64	; 0x40
     246:	438a      	bics	r2, r1
     248:	3140      	adds	r1, #64	; 0x40
     24a:	430a      	orrs	r2, r1
     24c:	4911      	ldr	r1, [pc, #68]	; (294 <Simple_Clk_Init+0x64>)
     24e:	400a      	ands	r2, r1
     250:	621a      	str	r2, [r3, #32]

	SYSCTRL->OSC8M.reg |= 0x1u << 1;  		// SYSCTRL_OSC8M_ENABLE bit = bit-1 (page 170)
     252:	6a19      	ldr	r1, [r3, #32]
     254:	2202      	movs	r2, #2
     256:	430a      	orrs	r2, r1
     258:	621a      	str	r2, [r3, #32]
	
	PM->CPUSEL.reg = (uint32_t)0;    		// CPU and BUS clocks Divide by 1  (see page 110)
     25a:	4b0f      	ldr	r3, [pc, #60]	; (298 <Simple_Clk_Init+0x68>)
     25c:	2200      	movs	r2, #0
     25e:	721a      	strb	r2, [r3, #8]
	PM->APBASEL.reg = (uint32_t)0;     		// APBA clock 0= Divide by 1  (see page 110)
     260:	725a      	strb	r2, [r3, #9]
	PM->APBBSEL.reg = (uint32_t)0;     		// APBB clock 0= Divide by 1  (see page 110)
     262:	729a      	strb	r2, [r3, #10]
	PM->APBCSEL.reg = (uint32_t)0;     		// APBB clock 0= Divide by 1  (see page 110)
     264:	72da      	strb	r2, [r3, #11]

	PM->APBAMASK.reg |= 01u<<3;   			// Enable Generic clock controller clock (page 127)
     266:	6999      	ldr	r1, [r3, #24]
     268:	3208      	adds	r2, #8
     26a:	430a      	orrs	r2, r1
     26c:	619a      	str	r2, [r3, #24]

	/* Software reset Generic clock to ensure it is re-initialized correctly */

	GCLK->CTRL.reg = 0x1u << 0;   			// Reset gen. clock (see page 94)
     26e:	2201      	movs	r2, #1
     270:	4b0a      	ldr	r3, [pc, #40]	; (29c <Simple_Clk_Init+0x6c>)
     272:	701a      	strb	r2, [r3, #0]
	while (GCLK->CTRL.reg & 0x1u ) {  /* Wait for reset to complete */ }
     274:	0019      	movs	r1, r3
     276:	780b      	ldrb	r3, [r1, #0]
     278:	4213      	tst	r3, r2
     27a:	d1fc      	bne.n	276 <Simple_Clk_Init+0x46>
	
	// Initialization and enable generic clock #0

	*((uint8_t*)&GCLK->GENDIV.reg) = 0;  		// Select GCLK0 (page 104, Table 14-10)

	GCLK->GENDIV.reg  = 0x0100;   		 	// Divide by 1 for GCLK #0 (page 104)
     27c:	4b07      	ldr	r3, [pc, #28]	; (29c <Simple_Clk_Init+0x6c>)
     27e:	2280      	movs	r2, #128	; 0x80
     280:	0052      	lsls	r2, r2, #1
     282:	609a      	str	r2, [r3, #8]

	GCLK->GENCTRL.reg = 0x030600;  		 	// GCLK#0 enable, Source=6(OSC8M), IDC=1 (page 101)
     284:	4a06      	ldr	r2, [pc, #24]	; (2a0 <Simple_Clk_Init+0x70>)
     286:	605a      	str	r2, [r3, #4]
}
     288:	4770      	bx	lr
     28a:	46c0      	nop			; (mov r8, r8)
     28c:	40000800 	.word	0x40000800
     290:	41004000 	.word	0x41004000
     294:	fffffcff 	.word	0xfffffcff
     298:	40000400 	.word	0x40000400
     29c:	40000c00 	.word	0x40000c00
     2a0:	00030600 	.word	0x00030600

000002a4 <main>:
//initialize the DAC pointer
Dac *dac = DAC;
volatile int sinarr[147] = {0}; // array to store 147 sine wave values

int main(void)
{
     2a4:	b5f8      	push	{r3, r4, r5, r6, r7, lr}
     2a6:	464f      	mov	r7, r9
     2a8:	4646      	mov	r6, r8
     2aa:	b4c0      	push	{r6, r7}
	Simple_Clk_Init();
     2ac:	4b1b      	ldr	r3, [pc, #108]	; (31c <main+0x78>)
     2ae:	4798      	blx	r3
	configure_dac_clock();
     2b0:	4b1b      	ldr	r3, [pc, #108]	; (320 <main+0x7c>)
     2b2:	4798      	blx	r3
	configure_dac();
     2b4:	4b1b      	ldr	r3, [pc, #108]	; (324 <main+0x80>)
     2b6:	4798      	blx	r3
	int i;
	double x;
	//We used the math header file to get access to the sin() function
	for(i = 0; i < 147; i++){ // generate the sine wave and store it in the array "sinarr" with 147 sample points
     2b8:	2400      	movs	r4, #0
		x = (2 * 3.14 * i / 147);
		sinarr[i] = ((sin(x) + 1)*0.5)*1023;
     2ba:	4f1b      	ldr	r7, [pc, #108]	; (328 <main+0x84>)
     2bc:	4d1b      	ldr	r5, [pc, #108]	; (32c <main+0x88>)
     2be:	4b1c      	ldr	r3, [pc, #112]	; (330 <main+0x8c>)
     2c0:	4699      	mov	r9, r3
     2c2:	0020      	movs	r0, r4
     2c4:	47b8      	blx	r7
     2c6:	4a1b      	ldr	r2, [pc, #108]	; (334 <main+0x90>)
     2c8:	4b1b      	ldr	r3, [pc, #108]	; (338 <main+0x94>)
     2ca:	47a8      	blx	r5
     2cc:	2200      	movs	r2, #0
     2ce:	4b1b      	ldr	r3, [pc, #108]	; (33c <main+0x98>)
     2d0:	47c8      	blx	r9
     2d2:	4b1b      	ldr	r3, [pc, #108]	; (340 <main+0x9c>)
     2d4:	4798      	blx	r3
     2d6:	2200      	movs	r2, #0
     2d8:	4b1a      	ldr	r3, [pc, #104]	; (344 <main+0xa0>)
     2da:	4e1b      	ldr	r6, [pc, #108]	; (348 <main+0xa4>)
     2dc:	47b0      	blx	r6
     2de:	2200      	movs	r2, #0
     2e0:	4b1a      	ldr	r3, [pc, #104]	; (34c <main+0xa8>)
     2e2:	47a8      	blx	r5
     2e4:	2200      	movs	r2, #0
     2e6:	4b1a      	ldr	r3, [pc, #104]	; (350 <main+0xac>)
     2e8:	47a8      	blx	r5
     2ea:	4b1a      	ldr	r3, [pc, #104]	; (354 <main+0xb0>)
     2ec:	4798      	blx	r3
     2ee:	00a2      	lsls	r2, r4, #2
     2f0:	4b19      	ldr	r3, [pc, #100]	; (358 <main+0xb4>)
     2f2:	50d0      	str	r0, [r2, r3]
	configure_dac_clock();
	configure_dac();
	int i;
	double x;
	//We used the math header file to get access to the sin() function
	for(i = 0; i < 147; i++){ // generate the sine wave and store it in the array "sinarr" with 147 sample points
     2f4:	3401      	adds	r4, #1
     2f6:	2c93      	cmp	r4, #147	; 0x93
     2f8:	d1e3      	bne.n	2c2 <main+0x1e>
	i = 0; // reset array value

	while (1) {

				/* Wait until the synchronization is complete */
		while (dac -> STATUS.reg & DAC_STATUS_SYNCBUSY) {
     2fa:	4b18      	ldr	r3, [pc, #96]	; (35c <main+0xb8>)
     2fc:	681a      	ldr	r2, [r3, #0]
     2fe:	2100      	movs	r1, #0
		};
				
				/* Write the new value to the DAC DATA register */
				dac -> DATA.reg = sinarr[i]; // send each element of the array one by one to the data register of the DAC
     300:	4815      	ldr	r0, [pc, #84]	; (358 <main+0xb4>)
	i = 0; // reset array value

	while (1) {

				/* Wait until the synchronization is complete */
		while (dac -> STATUS.reg & DAC_STATUS_SYNCBUSY) {
     302:	79d3      	ldrb	r3, [r2, #7]
     304:	b25b      	sxtb	r3, r3
     306:	2b00      	cmp	r3, #0
     308:	dbfb      	blt.n	302 <main+0x5e>
		};
				
				/* Write the new value to the DAC DATA register */
				dac -> DATA.reg = sinarr[i]; // send each element of the array one by one to the data register of the DAC
     30a:	008b      	lsls	r3, r1, #2
     30c:	581b      	ldr	r3, [r3, r0]
     30e:	b29b      	uxth	r3, r3
     310:	8113      	strh	r3, [r2, #8]
				i++;
     312:	3101      	adds	r1, #1
				if(i > 146){i = 0;} // reset the array value to first 
     314:	2992      	cmp	r1, #146	; 0x92
     316:	ddf4      	ble.n	302 <main+0x5e>
     318:	2100      	movs	r1, #0
     31a:	e7f2      	b.n	302 <main+0x5e>
     31c:	00000231 	.word	0x00000231
     320:	000001b1 	.word	0x000001b1
     324:	000001d9 	.word	0x000001d9
     328:	00003451 	.word	0x00003451
     32c:	00002849 	.word	0x00002849
     330:	00002001 	.word	0x00002001
     334:	51eb851f 	.word	0x51eb851f
     338:	40191eb8 	.word	0x40191eb8
     33c:	40626000 	.word	0x40626000
     340:	00000361 	.word	0x00000361
     344:	3ff00000 	.word	0x3ff00000
     348:	000019a9 	.word	0x000019a9
     34c:	3fe00000 	.word	0x3fe00000
     350:	408ff800 	.word	0x408ff800
     354:	000033e5 	.word	0x000033e5
     358:	20000020 	.word	0x20000020
     35c:	20000000 	.word	0x20000000

00000360 <sin>:
     360:	b530      	push	{r4, r5, lr}
     362:	4a21      	ldr	r2, [pc, #132]	; (3e8 <sin+0x88>)
     364:	004b      	lsls	r3, r1, #1
     366:	b087      	sub	sp, #28
     368:	085b      	lsrs	r3, r3, #1
     36a:	4293      	cmp	r3, r2
     36c:	dd1e      	ble.n	3ac <sin+0x4c>
     36e:	4a1f      	ldr	r2, [pc, #124]	; (3ec <sin+0x8c>)
     370:	4293      	cmp	r3, r2
     372:	dd05      	ble.n	380 <sin+0x20>
     374:	0002      	movs	r2, r0
     376:	000b      	movs	r3, r1
     378:	f002 fce0 	bl	2d3c <__aeabi_dsub>
     37c:	b007      	add	sp, #28
     37e:	bd30      	pop	{r4, r5, pc}
     380:	aa02      	add	r2, sp, #8
     382:	f000 f835 	bl	3f0 <__ieee754_rem_pio2>
     386:	2303      	movs	r3, #3
     388:	4018      	ands	r0, r3
     38a:	9a04      	ldr	r2, [sp, #16]
     38c:	9b05      	ldr	r3, [sp, #20]
     38e:	2801      	cmp	r0, #1
     390:	d01e      	beq.n	3d0 <sin+0x70>
     392:	2802      	cmp	r0, #2
     394:	d011      	beq.n	3ba <sin+0x5a>
     396:	2800      	cmp	r0, #0
     398:	d01f      	beq.n	3da <sin+0x7a>
     39a:	9802      	ldr	r0, [sp, #8]
     39c:	9903      	ldr	r1, [sp, #12]
     39e:	f000 fa2d 	bl	7fc <__kernel_cos>
     3a2:	2380      	movs	r3, #128	; 0x80
     3a4:	061b      	lsls	r3, r3, #24
     3a6:	469c      	mov	ip, r3
     3a8:	4461      	add	r1, ip
     3aa:	e7e7      	b.n	37c <sin+0x1c>
     3ac:	2300      	movs	r3, #0
     3ae:	2200      	movs	r2, #0
     3b0:	9300      	str	r3, [sp, #0]
     3b2:	2300      	movs	r3, #0
     3b4:	f000 ff88 	bl	12c8 <__kernel_sin>
     3b8:	e7e0      	b.n	37c <sin+0x1c>
     3ba:	2401      	movs	r4, #1
     3bc:	9802      	ldr	r0, [sp, #8]
     3be:	9903      	ldr	r1, [sp, #12]
     3c0:	9400      	str	r4, [sp, #0]
     3c2:	f000 ff81 	bl	12c8 <__kernel_sin>
     3c6:	2380      	movs	r3, #128	; 0x80
     3c8:	061b      	lsls	r3, r3, #24
     3ca:	469c      	mov	ip, r3
     3cc:	4461      	add	r1, ip
     3ce:	e7d5      	b.n	37c <sin+0x1c>
     3d0:	9802      	ldr	r0, [sp, #8]
     3d2:	9903      	ldr	r1, [sp, #12]
     3d4:	f000 fa12 	bl	7fc <__kernel_cos>
     3d8:	e7d0      	b.n	37c <sin+0x1c>
     3da:	2401      	movs	r4, #1
     3dc:	9802      	ldr	r0, [sp, #8]
     3de:	9903      	ldr	r1, [sp, #12]
     3e0:	9400      	str	r4, [sp, #0]
     3e2:	f000 ff71 	bl	12c8 <__kernel_sin>
     3e6:	e7c9      	b.n	37c <sin+0x1c>
     3e8:	3fe921fb 	.word	0x3fe921fb
     3ec:	7fefffff 	.word	0x7fefffff

000003f0 <__ieee754_rem_pio2>:
     3f0:	b5f0      	push	{r4, r5, r6, r7, lr}
     3f2:	464e      	mov	r6, r9
     3f4:	4657      	mov	r7, sl
     3f6:	4645      	mov	r5, r8
     3f8:	b4e0      	push	{r5, r6, r7}
     3fa:	4bdc      	ldr	r3, [pc, #880]	; (76c <__ieee754_rem_pio2+0x37c>)
     3fc:	004e      	lsls	r6, r1, #1
     3fe:	b090      	sub	sp, #64	; 0x40
     400:	0017      	movs	r7, r2
     402:	4689      	mov	r9, r1
     404:	0876      	lsrs	r6, r6, #1
     406:	429e      	cmp	r6, r3
     408:	dc00      	bgt.n	40c <__ieee754_rem_pio2+0x1c>
     40a:	e081      	b.n	510 <__ieee754_rem_pio2+0x120>
     40c:	4bd8      	ldr	r3, [pc, #864]	; (770 <__ieee754_rem_pio2+0x380>)
     40e:	429e      	cmp	r6, r3
     410:	dc20      	bgt.n	454 <__ieee754_rem_pio2+0x64>
     412:	4ad8      	ldr	r2, [pc, #864]	; (774 <__ieee754_rem_pio2+0x384>)
     414:	2900      	cmp	r1, #0
     416:	dc00      	bgt.n	41a <__ieee754_rem_pio2+0x2a>
     418:	e189      	b.n	72e <__ieee754_rem_pio2+0x33e>
     41a:	4bd7      	ldr	r3, [pc, #860]	; (778 <__ieee754_rem_pio2+0x388>)
     41c:	f002 fc8e 	bl	2d3c <__aeabi_dsub>
     420:	4bd5      	ldr	r3, [pc, #852]	; (778 <__ieee754_rem_pio2+0x388>)
     422:	0004      	movs	r4, r0
     424:	000d      	movs	r5, r1
     426:	429e      	cmp	r6, r3
     428:	d100      	bne.n	42c <__ieee754_rem_pio2+0x3c>
     42a:	e08a      	b.n	542 <__ieee754_rem_pio2+0x152>
     42c:	4ad3      	ldr	r2, [pc, #844]	; (77c <__ieee754_rem_pio2+0x38c>)
     42e:	4bd4      	ldr	r3, [pc, #848]	; (780 <__ieee754_rem_pio2+0x390>)
     430:	f002 fc84 	bl	2d3c <__aeabi_dsub>
     434:	0002      	movs	r2, r0
     436:	000b      	movs	r3, r1
     438:	0020      	movs	r0, r4
     43a:	603a      	str	r2, [r7, #0]
     43c:	607b      	str	r3, [r7, #4]
     43e:	0029      	movs	r1, r5
     440:	f002 fc7c 	bl	2d3c <__aeabi_dsub>
     444:	4acd      	ldr	r2, [pc, #820]	; (77c <__ieee754_rem_pio2+0x38c>)
     446:	4bce      	ldr	r3, [pc, #824]	; (780 <__ieee754_rem_pio2+0x390>)
     448:	f002 fc78 	bl	2d3c <__aeabi_dsub>
     44c:	60b8      	str	r0, [r7, #8]
     44e:	60f9      	str	r1, [r7, #12]
     450:	2001      	movs	r0, #1
     452:	e066      	b.n	522 <__ieee754_rem_pio2+0x132>
     454:	4bcb      	ldr	r3, [pc, #812]	; (784 <__ieee754_rem_pio2+0x394>)
     456:	429e      	cmp	r6, r3
     458:	dc00      	bgt.n	45c <__ieee754_rem_pio2+0x6c>
     45a:	e08d      	b.n	578 <__ieee754_rem_pio2+0x188>
     45c:	4bca      	ldr	r3, [pc, #808]	; (788 <__ieee754_rem_pio2+0x398>)
     45e:	429e      	cmp	r6, r3
     460:	dc65      	bgt.n	52e <__ieee754_rem_pio2+0x13e>
     462:	49ca      	ldr	r1, [pc, #808]	; (78c <__ieee754_rem_pio2+0x39c>)
     464:	1532      	asrs	r2, r6, #20
     466:	468a      	mov	sl, r1
     468:	4492      	add	sl, r2
     46a:	4653      	mov	r3, sl
     46c:	051b      	lsls	r3, r3, #20
     46e:	1af5      	subs	r5, r6, r3
     470:	0029      	movs	r1, r5
     472:	0004      	movs	r4, r0
     474:	f002 ffb6 	bl	33e4 <__aeabi_d2iz>
     478:	f002 ffea 	bl	3450 <__aeabi_i2d>
     47c:	0002      	movs	r2, r0
     47e:	000b      	movs	r3, r1
     480:	0020      	movs	r0, r4
     482:	0029      	movs	r1, r5
     484:	920a      	str	r2, [sp, #40]	; 0x28
     486:	930b      	str	r3, [sp, #44]	; 0x2c
     488:	f002 fc58 	bl	2d3c <__aeabi_dsub>
     48c:	2200      	movs	r2, #0
     48e:	4bc0      	ldr	r3, [pc, #768]	; (790 <__ieee754_rem_pio2+0x3a0>)
     490:	f002 f9da 	bl	2848 <__aeabi_dmul>
     494:	9002      	str	r0, [sp, #8]
     496:	9103      	str	r1, [sp, #12]
     498:	f002 ffa4 	bl	33e4 <__aeabi_d2iz>
     49c:	f002 ffd8 	bl	3450 <__aeabi_i2d>
     4a0:	0004      	movs	r4, r0
     4a2:	000d      	movs	r5, r1
     4a4:	0002      	movs	r2, r0
     4a6:	000b      	movs	r3, r1
     4a8:	9802      	ldr	r0, [sp, #8]
     4aa:	9903      	ldr	r1, [sp, #12]
     4ac:	940c      	str	r4, [sp, #48]	; 0x30
     4ae:	950d      	str	r5, [sp, #52]	; 0x34
     4b0:	f002 fc44 	bl	2d3c <__aeabi_dsub>
     4b4:	2200      	movs	r2, #0
     4b6:	4bb6      	ldr	r3, [pc, #728]	; (790 <__ieee754_rem_pio2+0x3a0>)
     4b8:	f002 f9c6 	bl	2848 <__aeabi_dmul>
     4bc:	2200      	movs	r2, #0
     4be:	2300      	movs	r3, #0
     4c0:	900e      	str	r0, [sp, #56]	; 0x38
     4c2:	910f      	str	r1, [sp, #60]	; 0x3c
     4c4:	f001 fa42 	bl	194c <__aeabi_dcmpeq>
     4c8:	2800      	cmp	r0, #0
     4ca:	d100      	bne.n	4ce <__ieee754_rem_pio2+0xde>
     4cc:	e14c      	b.n	768 <__ieee754_rem_pio2+0x378>
     4ce:	2300      	movs	r3, #0
     4d0:	2200      	movs	r2, #0
     4d2:	0020      	movs	r0, r4
     4d4:	0029      	movs	r1, r5
     4d6:	f001 fa39 	bl	194c <__aeabi_dcmpeq>
     4da:	2202      	movs	r2, #2
     4dc:	1e43      	subs	r3, r0, #1
     4de:	4198      	sbcs	r0, r3
     4e0:	1a13      	subs	r3, r2, r0
     4e2:	4aac      	ldr	r2, [pc, #688]	; (794 <__ieee754_rem_pio2+0x3a4>)
     4e4:	0039      	movs	r1, r7
     4e6:	9201      	str	r2, [sp, #4]
     4e8:	2202      	movs	r2, #2
     4ea:	a80a      	add	r0, sp, #40	; 0x28
     4ec:	9200      	str	r2, [sp, #0]
     4ee:	4652      	mov	r2, sl
     4f0:	f000 fa9e 	bl	a30 <__kernel_rem_pio2>
     4f4:	464b      	mov	r3, r9
     4f6:	2b00      	cmp	r3, #0
     4f8:	da13      	bge.n	522 <__ieee754_rem_pio2+0x132>
     4fa:	2280      	movs	r2, #128	; 0x80
     4fc:	0612      	lsls	r2, r2, #24
     4fe:	4694      	mov	ip, r2
     500:	687b      	ldr	r3, [r7, #4]
     502:	4240      	negs	r0, r0
     504:	4463      	add	r3, ip
     506:	607b      	str	r3, [r7, #4]
     508:	68fb      	ldr	r3, [r7, #12]
     50a:	4463      	add	r3, ip
     50c:	60fb      	str	r3, [r7, #12]
     50e:	e008      	b.n	522 <__ieee754_rem_pio2+0x132>
     510:	0002      	movs	r2, r0
     512:	000b      	movs	r3, r1
     514:	603a      	str	r2, [r7, #0]
     516:	607b      	str	r3, [r7, #4]
     518:	2200      	movs	r2, #0
     51a:	2300      	movs	r3, #0
     51c:	2000      	movs	r0, #0
     51e:	60ba      	str	r2, [r7, #8]
     520:	60fb      	str	r3, [r7, #12]
     522:	b010      	add	sp, #64	; 0x40
     524:	bc1c      	pop	{r2, r3, r4}
     526:	4690      	mov	r8, r2
     528:	4699      	mov	r9, r3
     52a:	46a2      	mov	sl, r4
     52c:	bdf0      	pop	{r4, r5, r6, r7, pc}
     52e:	0002      	movs	r2, r0
     530:	000b      	movs	r3, r1
     532:	f002 fc03 	bl	2d3c <__aeabi_dsub>
     536:	60b8      	str	r0, [r7, #8]
     538:	60f9      	str	r1, [r7, #12]
     53a:	6038      	str	r0, [r7, #0]
     53c:	6079      	str	r1, [r7, #4]
     53e:	2000      	movs	r0, #0
     540:	e7ef      	b.n	522 <__ieee754_rem_pio2+0x132>
     542:	22d3      	movs	r2, #211	; 0xd3
     544:	4b8e      	ldr	r3, [pc, #568]	; (780 <__ieee754_rem_pio2+0x390>)
     546:	0552      	lsls	r2, r2, #21
     548:	f002 fbf8 	bl	2d3c <__aeabi_dsub>
     54c:	4a92      	ldr	r2, [pc, #584]	; (798 <__ieee754_rem_pio2+0x3a8>)
     54e:	4b93      	ldr	r3, [pc, #588]	; (79c <__ieee754_rem_pio2+0x3ac>)
     550:	0004      	movs	r4, r0
     552:	000d      	movs	r5, r1
     554:	f002 fbf2 	bl	2d3c <__aeabi_dsub>
     558:	0002      	movs	r2, r0
     55a:	000b      	movs	r3, r1
     55c:	0020      	movs	r0, r4
     55e:	603a      	str	r2, [r7, #0]
     560:	607b      	str	r3, [r7, #4]
     562:	0029      	movs	r1, r5
     564:	f002 fbea 	bl	2d3c <__aeabi_dsub>
     568:	4a8b      	ldr	r2, [pc, #556]	; (798 <__ieee754_rem_pio2+0x3a8>)
     56a:	4b8c      	ldr	r3, [pc, #560]	; (79c <__ieee754_rem_pio2+0x3ac>)
     56c:	f002 fbe6 	bl	2d3c <__aeabi_dsub>
     570:	60b8      	str	r0, [r7, #8]
     572:	60f9      	str	r1, [r7, #12]
     574:	2001      	movs	r0, #1
     576:	e7d4      	b.n	522 <__ieee754_rem_pio2+0x132>
     578:	f000 ff56 	bl	1428 <fabs>
     57c:	4a88      	ldr	r2, [pc, #544]	; (7a0 <__ieee754_rem_pio2+0x3b0>)
     57e:	4b89      	ldr	r3, [pc, #548]	; (7a4 <__ieee754_rem_pio2+0x3b4>)
     580:	0004      	movs	r4, r0
     582:	000d      	movs	r5, r1
     584:	f002 f960 	bl	2848 <__aeabi_dmul>
     588:	2200      	movs	r2, #0
     58a:	4b87      	ldr	r3, [pc, #540]	; (7a8 <__ieee754_rem_pio2+0x3b8>)
     58c:	f001 fa0c 	bl	19a8 <__aeabi_dadd>
     590:	f002 ff28 	bl	33e4 <__aeabi_d2iz>
     594:	4680      	mov	r8, r0
     596:	f002 ff5b 	bl	3450 <__aeabi_i2d>
     59a:	4a76      	ldr	r2, [pc, #472]	; (774 <__ieee754_rem_pio2+0x384>)
     59c:	4b76      	ldr	r3, [pc, #472]	; (778 <__ieee754_rem_pio2+0x388>)
     59e:	9006      	str	r0, [sp, #24]
     5a0:	9107      	str	r1, [sp, #28]
     5a2:	f002 f951 	bl	2848 <__aeabi_dmul>
     5a6:	0002      	movs	r2, r0
     5a8:	000b      	movs	r3, r1
     5aa:	0020      	movs	r0, r4
     5ac:	0029      	movs	r1, r5
     5ae:	f002 fbc5 	bl	2d3c <__aeabi_dsub>
     5b2:	4b73      	ldr	r3, [pc, #460]	; (780 <__ieee754_rem_pio2+0x390>)
     5b4:	9002      	str	r0, [sp, #8]
     5b6:	9103      	str	r1, [sp, #12]
     5b8:	9806      	ldr	r0, [sp, #24]
     5ba:	9907      	ldr	r1, [sp, #28]
     5bc:	4a6f      	ldr	r2, [pc, #444]	; (77c <__ieee754_rem_pio2+0x38c>)
     5be:	f002 f943 	bl	2848 <__aeabi_dmul>
     5c2:	4643      	mov	r3, r8
     5c4:	0004      	movs	r4, r0
     5c6:	000d      	movs	r5, r1
     5c8:	9404      	str	r4, [sp, #16]
     5ca:	9505      	str	r5, [sp, #20]
     5cc:	2b1f      	cmp	r3, #31
     5ce:	dc30      	bgt.n	632 <__ieee754_rem_pio2+0x242>
     5d0:	3b01      	subs	r3, #1
     5d2:	4a76      	ldr	r2, [pc, #472]	; (7ac <__ieee754_rem_pio2+0x3bc>)
     5d4:	009b      	lsls	r3, r3, #2
     5d6:	589b      	ldr	r3, [r3, r2]
     5d8:	429e      	cmp	r6, r3
     5da:	d02a      	beq.n	632 <__ieee754_rem_pio2+0x242>
     5dc:	0002      	movs	r2, r0
     5de:	000b      	movs	r3, r1
     5e0:	9802      	ldr	r0, [sp, #8]
     5e2:	9903      	ldr	r1, [sp, #12]
     5e4:	f002 fbaa 	bl	2d3c <__aeabi_dsub>
     5e8:	0002      	movs	r2, r0
     5ea:	000b      	movs	r3, r1
     5ec:	0005      	movs	r5, r0
     5ee:	000c      	movs	r4, r1
     5f0:	603a      	str	r2, [r7, #0]
     5f2:	607b      	str	r3, [r7, #4]
     5f4:	9802      	ldr	r0, [sp, #8]
     5f6:	9903      	ldr	r1, [sp, #12]
     5f8:	002a      	movs	r2, r5
     5fa:	0023      	movs	r3, r4
     5fc:	f002 fb9e 	bl	2d3c <__aeabi_dsub>
     600:	9a04      	ldr	r2, [sp, #16]
     602:	9b05      	ldr	r3, [sp, #20]
     604:	f002 fb9a 	bl	2d3c <__aeabi_dsub>
     608:	0006      	movs	r6, r0
     60a:	000b      	movs	r3, r1
     60c:	0032      	movs	r2, r6
     60e:	60ba      	str	r2, [r7, #8]
     610:	60fb      	str	r3, [r7, #12]
     612:	464b      	mov	r3, r9
     614:	4640      	mov	r0, r8
     616:	2b00      	cmp	r3, #0
     618:	db00      	blt.n	61c <__ieee754_rem_pio2+0x22c>
     61a:	e782      	b.n	522 <__ieee754_rem_pio2+0x132>
     61c:	2380      	movs	r3, #128	; 0x80
     61e:	061b      	lsls	r3, r3, #24
     620:	469c      	mov	ip, r3
     622:	4464      	add	r4, ip
     624:	4461      	add	r1, ip
     626:	603d      	str	r5, [r7, #0]
     628:	607c      	str	r4, [r7, #4]
     62a:	60be      	str	r6, [r7, #8]
     62c:	60f9      	str	r1, [r7, #12]
     62e:	4240      	negs	r0, r0
     630:	e777      	b.n	522 <__ieee754_rem_pio2+0x132>
     632:	9a04      	ldr	r2, [sp, #16]
     634:	9b05      	ldr	r3, [sp, #20]
     636:	9802      	ldr	r0, [sp, #8]
     638:	9903      	ldr	r1, [sp, #12]
     63a:	f002 fb7f 	bl	2d3c <__aeabi_dsub>
     63e:	000b      	movs	r3, r1
     640:	0002      	movs	r2, r0
     642:	603a      	str	r2, [r7, #0]
     644:	607b      	str	r3, [r7, #4]
     646:	004b      	lsls	r3, r1, #1
     648:	1536      	asrs	r6, r6, #20
     64a:	0d5b      	lsrs	r3, r3, #21
     64c:	0005      	movs	r5, r0
     64e:	000c      	movs	r4, r1
     650:	1af3      	subs	r3, r6, r3
     652:	2b10      	cmp	r3, #16
     654:	ddce      	ble.n	5f4 <__ieee754_rem_pio2+0x204>
     656:	9806      	ldr	r0, [sp, #24]
     658:	9907      	ldr	r1, [sp, #28]
     65a:	22d3      	movs	r2, #211	; 0xd3
     65c:	4b48      	ldr	r3, [pc, #288]	; (780 <__ieee754_rem_pio2+0x390>)
     65e:	0552      	lsls	r2, r2, #21
     660:	f002 f8f2 	bl	2848 <__aeabi_dmul>
     664:	0004      	movs	r4, r0
     666:	000d      	movs	r5, r1
     668:	0002      	movs	r2, r0
     66a:	000b      	movs	r3, r1
     66c:	9802      	ldr	r0, [sp, #8]
     66e:	9903      	ldr	r1, [sp, #12]
     670:	f002 fb64 	bl	2d3c <__aeabi_dsub>
     674:	0002      	movs	r2, r0
     676:	000b      	movs	r3, r1
     678:	9802      	ldr	r0, [sp, #8]
     67a:	9903      	ldr	r1, [sp, #12]
     67c:	9208      	str	r2, [sp, #32]
     67e:	9309      	str	r3, [sp, #36]	; 0x24
     680:	f002 fb5c 	bl	2d3c <__aeabi_dsub>
     684:	0022      	movs	r2, r4
     686:	002b      	movs	r3, r5
     688:	f002 fb58 	bl	2d3c <__aeabi_dsub>
     68c:	0004      	movs	r4, r0
     68e:	000d      	movs	r5, r1
     690:	9806      	ldr	r0, [sp, #24]
     692:	9907      	ldr	r1, [sp, #28]
     694:	4a40      	ldr	r2, [pc, #256]	; (798 <__ieee754_rem_pio2+0x3a8>)
     696:	4b41      	ldr	r3, [pc, #260]	; (79c <__ieee754_rem_pio2+0x3ac>)
     698:	f002 f8d6 	bl	2848 <__aeabi_dmul>
     69c:	0022      	movs	r2, r4
     69e:	002b      	movs	r3, r5
     6a0:	f002 fb4c 	bl	2d3c <__aeabi_dsub>
     6a4:	0002      	movs	r2, r0
     6a6:	000b      	movs	r3, r1
     6a8:	9004      	str	r0, [sp, #16]
     6aa:	9105      	str	r1, [sp, #20]
     6ac:	9808      	ldr	r0, [sp, #32]
     6ae:	9909      	ldr	r1, [sp, #36]	; 0x24
     6b0:	f002 fb44 	bl	2d3c <__aeabi_dsub>
     6b4:	0002      	movs	r2, r0
     6b6:	000b      	movs	r3, r1
     6b8:	603a      	str	r2, [r7, #0]
     6ba:	607b      	str	r3, [r7, #4]
     6bc:	004b      	lsls	r3, r1, #1
     6be:	0d5b      	lsrs	r3, r3, #21
     6c0:	1af6      	subs	r6, r6, r3
     6c2:	0005      	movs	r5, r0
     6c4:	9a08      	ldr	r2, [sp, #32]
     6c6:	9b09      	ldr	r3, [sp, #36]	; 0x24
     6c8:	000c      	movs	r4, r1
     6ca:	9202      	str	r2, [sp, #8]
     6cc:	9303      	str	r3, [sp, #12]
     6ce:	2e31      	cmp	r6, #49	; 0x31
     6d0:	dd90      	ble.n	5f4 <__ieee754_rem_pio2+0x204>
     6d2:	9806      	ldr	r0, [sp, #24]
     6d4:	9907      	ldr	r1, [sp, #28]
     6d6:	22b8      	movs	r2, #184	; 0xb8
     6d8:	4b30      	ldr	r3, [pc, #192]	; (79c <__ieee754_rem_pio2+0x3ac>)
     6da:	0592      	lsls	r2, r2, #22
     6dc:	f002 f8b4 	bl	2848 <__aeabi_dmul>
     6e0:	0004      	movs	r4, r0
     6e2:	000d      	movs	r5, r1
     6e4:	0002      	movs	r2, r0
     6e6:	000b      	movs	r3, r1
     6e8:	9802      	ldr	r0, [sp, #8]
     6ea:	9903      	ldr	r1, [sp, #12]
     6ec:	f002 fb26 	bl	2d3c <__aeabi_dsub>
     6f0:	000a      	movs	r2, r1
     6f2:	0001      	movs	r1, r0
     6f4:	0013      	movs	r3, r2
     6f6:	9102      	str	r1, [sp, #8]
     6f8:	9203      	str	r2, [sp, #12]
     6fa:	0002      	movs	r2, r0
     6fc:	9808      	ldr	r0, [sp, #32]
     6fe:	9909      	ldr	r1, [sp, #36]	; 0x24
     700:	f002 fb1c 	bl	2d3c <__aeabi_dsub>
     704:	0022      	movs	r2, r4
     706:	002b      	movs	r3, r5
     708:	f002 fb18 	bl	2d3c <__aeabi_dsub>
     70c:	0004      	movs	r4, r0
     70e:	000d      	movs	r5, r1
     710:	9806      	ldr	r0, [sp, #24]
     712:	9907      	ldr	r1, [sp, #28]
     714:	4a26      	ldr	r2, [pc, #152]	; (7b0 <__ieee754_rem_pio2+0x3c0>)
     716:	4b27      	ldr	r3, [pc, #156]	; (7b4 <__ieee754_rem_pio2+0x3c4>)
     718:	f002 f896 	bl	2848 <__aeabi_dmul>
     71c:	0022      	movs	r2, r4
     71e:	002b      	movs	r3, r5
     720:	f002 fb0c 	bl	2d3c <__aeabi_dsub>
     724:	0002      	movs	r2, r0
     726:	000b      	movs	r3, r1
     728:	9204      	str	r2, [sp, #16]
     72a:	9305      	str	r3, [sp, #20]
     72c:	e758      	b.n	5e0 <__ieee754_rem_pio2+0x1f0>
     72e:	4b12      	ldr	r3, [pc, #72]	; (778 <__ieee754_rem_pio2+0x388>)
     730:	f001 f93a 	bl	19a8 <__aeabi_dadd>
     734:	4b10      	ldr	r3, [pc, #64]	; (778 <__ieee754_rem_pio2+0x388>)
     736:	0004      	movs	r4, r0
     738:	000d      	movs	r5, r1
     73a:	429e      	cmp	r6, r3
     73c:	d03c      	beq.n	7b8 <__ieee754_rem_pio2+0x3c8>
     73e:	4a0f      	ldr	r2, [pc, #60]	; (77c <__ieee754_rem_pio2+0x38c>)
     740:	4b0f      	ldr	r3, [pc, #60]	; (780 <__ieee754_rem_pio2+0x390>)
     742:	f001 f931 	bl	19a8 <__aeabi_dadd>
     746:	0002      	movs	r2, r0
     748:	000b      	movs	r3, r1
     74a:	0020      	movs	r0, r4
     74c:	603a      	str	r2, [r7, #0]
     74e:	607b      	str	r3, [r7, #4]
     750:	0029      	movs	r1, r5
     752:	f002 faf3 	bl	2d3c <__aeabi_dsub>
     756:	4a09      	ldr	r2, [pc, #36]	; (77c <__ieee754_rem_pio2+0x38c>)
     758:	4b09      	ldr	r3, [pc, #36]	; (780 <__ieee754_rem_pio2+0x390>)
     75a:	f001 f925 	bl	19a8 <__aeabi_dadd>
     75e:	60b8      	str	r0, [r7, #8]
     760:	60f9      	str	r1, [r7, #12]
     762:	2001      	movs	r0, #1
     764:	4240      	negs	r0, r0
     766:	e6dc      	b.n	522 <__ieee754_rem_pio2+0x132>
     768:	2303      	movs	r3, #3
     76a:	e6ba      	b.n	4e2 <__ieee754_rem_pio2+0xf2>
     76c:	3fe921fb 	.word	0x3fe921fb
     770:	4002d97b 	.word	0x4002d97b
     774:	54400000 	.word	0x54400000
     778:	3ff921fb 	.word	0x3ff921fb
     77c:	1a626331 	.word	0x1a626331
     780:	3dd0b461 	.word	0x3dd0b461
     784:	413921fb 	.word	0x413921fb
     788:	7fefffff 	.word	0x7fefffff
     78c:	fffffbea 	.word	0xfffffbea
     790:	41700000 	.word	0x41700000
     794:	000035dc 	.word	0x000035dc
     798:	2e037073 	.word	0x2e037073
     79c:	3ba3198a 	.word	0x3ba3198a
     7a0:	6dc9c883 	.word	0x6dc9c883
     7a4:	3fe45f30 	.word	0x3fe45f30
     7a8:	3fe00000 	.word	0x3fe00000
     7ac:	0000355c 	.word	0x0000355c
     7b0:	252049c1 	.word	0x252049c1
     7b4:	397b839a 	.word	0x397b839a
     7b8:	22d3      	movs	r2, #211	; 0xd3
     7ba:	4b0d      	ldr	r3, [pc, #52]	; (7f0 <__ieee754_rem_pio2+0x400>)
     7bc:	0552      	lsls	r2, r2, #21
     7be:	f001 f8f3 	bl	19a8 <__aeabi_dadd>
     7c2:	4a0c      	ldr	r2, [pc, #48]	; (7f4 <__ieee754_rem_pio2+0x404>)
     7c4:	4b0c      	ldr	r3, [pc, #48]	; (7f8 <__ieee754_rem_pio2+0x408>)
     7c6:	0004      	movs	r4, r0
     7c8:	000d      	movs	r5, r1
     7ca:	f001 f8ed 	bl	19a8 <__aeabi_dadd>
     7ce:	0002      	movs	r2, r0
     7d0:	000b      	movs	r3, r1
     7d2:	0020      	movs	r0, r4
     7d4:	603a      	str	r2, [r7, #0]
     7d6:	607b      	str	r3, [r7, #4]
     7d8:	0029      	movs	r1, r5
     7da:	f002 faaf 	bl	2d3c <__aeabi_dsub>
     7de:	4a05      	ldr	r2, [pc, #20]	; (7f4 <__ieee754_rem_pio2+0x404>)
     7e0:	4b05      	ldr	r3, [pc, #20]	; (7f8 <__ieee754_rem_pio2+0x408>)
     7e2:	f001 f8e1 	bl	19a8 <__aeabi_dadd>
     7e6:	60b8      	str	r0, [r7, #8]
     7e8:	60f9      	str	r1, [r7, #12]
     7ea:	2001      	movs	r0, #1
     7ec:	4240      	negs	r0, r0
     7ee:	e698      	b.n	522 <__ieee754_rem_pio2+0x132>
     7f0:	3dd0b461 	.word	0x3dd0b461
     7f4:	2e037073 	.word	0x2e037073
     7f8:	3ba3198a 	.word	0x3ba3198a

000007fc <__kernel_cos>:
     7fc:	b5f0      	push	{r4, r5, r6, r7, lr}
     7fe:	464f      	mov	r7, r9
     800:	4646      	mov	r6, r8
     802:	b4c0      	push	{r6, r7}
     804:	b087      	sub	sp, #28
     806:	9200      	str	r2, [sp, #0]
     808:	9301      	str	r3, [sp, #4]
     80a:	4b75      	ldr	r3, [pc, #468]	; (9e0 <__kernel_cos+0x1e4>)
     80c:	004f      	lsls	r7, r1, #1
     80e:	4681      	mov	r9, r0
     810:	4688      	mov	r8, r1
     812:	087f      	lsrs	r7, r7, #1
     814:	429f      	cmp	r7, r3
     816:	dc63      	bgt.n	8e0 <__kernel_cos+0xe4>
     818:	f002 fde4 	bl	33e4 <__aeabi_d2iz>
     81c:	2800      	cmp	r0, #0
     81e:	d100      	bne.n	822 <__kernel_cos+0x26>
     820:	e0da      	b.n	9d8 <__kernel_cos+0x1dc>
     822:	464a      	mov	r2, r9
     824:	4643      	mov	r3, r8
     826:	4648      	mov	r0, r9
     828:	4641      	mov	r1, r8
     82a:	f002 f80d 	bl	2848 <__aeabi_dmul>
     82e:	0004      	movs	r4, r0
     830:	000d      	movs	r5, r1
     832:	4a6c      	ldr	r2, [pc, #432]	; (9e4 <__kernel_cos+0x1e8>)
     834:	4b6c      	ldr	r3, [pc, #432]	; (9e8 <__kernel_cos+0x1ec>)
     836:	f002 f807 	bl	2848 <__aeabi_dmul>
     83a:	4a6c      	ldr	r2, [pc, #432]	; (9ec <__kernel_cos+0x1f0>)
     83c:	4b6c      	ldr	r3, [pc, #432]	; (9f0 <__kernel_cos+0x1f4>)
     83e:	f001 f8b3 	bl	19a8 <__aeabi_dadd>
     842:	0022      	movs	r2, r4
     844:	002b      	movs	r3, r5
     846:	f001 ffff 	bl	2848 <__aeabi_dmul>
     84a:	4a6a      	ldr	r2, [pc, #424]	; (9f4 <__kernel_cos+0x1f8>)
     84c:	4b6a      	ldr	r3, [pc, #424]	; (9f8 <__kernel_cos+0x1fc>)
     84e:	f002 fa75 	bl	2d3c <__aeabi_dsub>
     852:	0022      	movs	r2, r4
     854:	002b      	movs	r3, r5
     856:	f001 fff7 	bl	2848 <__aeabi_dmul>
     85a:	4a68      	ldr	r2, [pc, #416]	; (9fc <__kernel_cos+0x200>)
     85c:	4b68      	ldr	r3, [pc, #416]	; (a00 <__kernel_cos+0x204>)
     85e:	f001 f8a3 	bl	19a8 <__aeabi_dadd>
     862:	0022      	movs	r2, r4
     864:	002b      	movs	r3, r5
     866:	f001 ffef 	bl	2848 <__aeabi_dmul>
     86a:	4a66      	ldr	r2, [pc, #408]	; (a04 <__kernel_cos+0x208>)
     86c:	4b66      	ldr	r3, [pc, #408]	; (a08 <__kernel_cos+0x20c>)
     86e:	f002 fa65 	bl	2d3c <__aeabi_dsub>
     872:	0022      	movs	r2, r4
     874:	002b      	movs	r3, r5
     876:	f001 ffe7 	bl	2848 <__aeabi_dmul>
     87a:	4a64      	ldr	r2, [pc, #400]	; (a0c <__kernel_cos+0x210>)
     87c:	4b64      	ldr	r3, [pc, #400]	; (a10 <__kernel_cos+0x214>)
     87e:	f001 f893 	bl	19a8 <__aeabi_dadd>
     882:	0022      	movs	r2, r4
     884:	002b      	movs	r3, r5
     886:	f001 ffdf 	bl	2848 <__aeabi_dmul>
     88a:	9002      	str	r0, [sp, #8]
     88c:	9103      	str	r1, [sp, #12]
     88e:	2200      	movs	r2, #0
     890:	4b60      	ldr	r3, [pc, #384]	; (a14 <__kernel_cos+0x218>)
     892:	0020      	movs	r0, r4
     894:	0029      	movs	r1, r5
     896:	f001 ffd7 	bl	2848 <__aeabi_dmul>
     89a:	9a02      	ldr	r2, [sp, #8]
     89c:	9b03      	ldr	r3, [sp, #12]
     89e:	0006      	movs	r6, r0
     8a0:	000f      	movs	r7, r1
     8a2:	0020      	movs	r0, r4
     8a4:	0029      	movs	r1, r5
     8a6:	f001 ffcf 	bl	2848 <__aeabi_dmul>
     8aa:	9a00      	ldr	r2, [sp, #0]
     8ac:	9b01      	ldr	r3, [sp, #4]
     8ae:	0004      	movs	r4, r0
     8b0:	000d      	movs	r5, r1
     8b2:	4648      	mov	r0, r9
     8b4:	4641      	mov	r1, r8
     8b6:	f001 ffc7 	bl	2848 <__aeabi_dmul>
     8ba:	0002      	movs	r2, r0
     8bc:	000b      	movs	r3, r1
     8be:	0020      	movs	r0, r4
     8c0:	0029      	movs	r1, r5
     8c2:	f002 fa3b 	bl	2d3c <__aeabi_dsub>
     8c6:	0002      	movs	r2, r0
     8c8:	000b      	movs	r3, r1
     8ca:	0030      	movs	r0, r6
     8cc:	0039      	movs	r1, r7
     8ce:	f002 fa35 	bl	2d3c <__aeabi_dsub>
     8d2:	0002      	movs	r2, r0
     8d4:	000b      	movs	r3, r1
     8d6:	2000      	movs	r0, #0
     8d8:	494f      	ldr	r1, [pc, #316]	; (a18 <__kernel_cos+0x21c>)
     8da:	f002 fa2f 	bl	2d3c <__aeabi_dsub>
     8de:	e070      	b.n	9c2 <__kernel_cos+0x1c6>
     8e0:	0002      	movs	r2, r0
     8e2:	000b      	movs	r3, r1
     8e4:	f001 ffb0 	bl	2848 <__aeabi_dmul>
     8e8:	0004      	movs	r4, r0
     8ea:	000d      	movs	r5, r1
     8ec:	4a3d      	ldr	r2, [pc, #244]	; (9e4 <__kernel_cos+0x1e8>)
     8ee:	4b3e      	ldr	r3, [pc, #248]	; (9e8 <__kernel_cos+0x1ec>)
     8f0:	f001 ffaa 	bl	2848 <__aeabi_dmul>
     8f4:	4a3d      	ldr	r2, [pc, #244]	; (9ec <__kernel_cos+0x1f0>)
     8f6:	4b3e      	ldr	r3, [pc, #248]	; (9f0 <__kernel_cos+0x1f4>)
     8f8:	f001 f856 	bl	19a8 <__aeabi_dadd>
     8fc:	0022      	movs	r2, r4
     8fe:	002b      	movs	r3, r5
     900:	f001 ffa2 	bl	2848 <__aeabi_dmul>
     904:	4a3b      	ldr	r2, [pc, #236]	; (9f4 <__kernel_cos+0x1f8>)
     906:	4b3c      	ldr	r3, [pc, #240]	; (9f8 <__kernel_cos+0x1fc>)
     908:	f002 fa18 	bl	2d3c <__aeabi_dsub>
     90c:	0022      	movs	r2, r4
     90e:	002b      	movs	r3, r5
     910:	f001 ff9a 	bl	2848 <__aeabi_dmul>
     914:	4a39      	ldr	r2, [pc, #228]	; (9fc <__kernel_cos+0x200>)
     916:	4b3a      	ldr	r3, [pc, #232]	; (a00 <__kernel_cos+0x204>)
     918:	f001 f846 	bl	19a8 <__aeabi_dadd>
     91c:	0022      	movs	r2, r4
     91e:	002b      	movs	r3, r5
     920:	f001 ff92 	bl	2848 <__aeabi_dmul>
     924:	4a37      	ldr	r2, [pc, #220]	; (a04 <__kernel_cos+0x208>)
     926:	4b38      	ldr	r3, [pc, #224]	; (a08 <__kernel_cos+0x20c>)
     928:	f002 fa08 	bl	2d3c <__aeabi_dsub>
     92c:	0022      	movs	r2, r4
     92e:	002b      	movs	r3, r5
     930:	f001 ff8a 	bl	2848 <__aeabi_dmul>
     934:	4a35      	ldr	r2, [pc, #212]	; (a0c <__kernel_cos+0x210>)
     936:	4b36      	ldr	r3, [pc, #216]	; (a10 <__kernel_cos+0x214>)
     938:	f001 f836 	bl	19a8 <__aeabi_dadd>
     93c:	002b      	movs	r3, r5
     93e:	0022      	movs	r2, r4
     940:	f001 ff82 	bl	2848 <__aeabi_dmul>
     944:	4b35      	ldr	r3, [pc, #212]	; (a1c <__kernel_cos+0x220>)
     946:	9002      	str	r0, [sp, #8]
     948:	9103      	str	r1, [sp, #12]
     94a:	429f      	cmp	r7, r3
     94c:	dd9f      	ble.n	88e <__kernel_cos+0x92>
     94e:	4b34      	ldr	r3, [pc, #208]	; (a20 <__kernel_cos+0x224>)
     950:	2200      	movs	r2, #0
     952:	429f      	cmp	r7, r3
     954:	dc3a      	bgt.n	9cc <__kernel_cos+0x1d0>
     956:	4933      	ldr	r1, [pc, #204]	; (a24 <__kernel_cos+0x228>)
     958:	2000      	movs	r0, #0
     95a:	187b      	adds	r3, r7, r1
     95c:	492e      	ldr	r1, [pc, #184]	; (a18 <__kernel_cos+0x21c>)
     95e:	0016      	movs	r6, r2
     960:	001f      	movs	r7, r3
     962:	f002 f9eb 	bl	2d3c <__aeabi_dsub>
     966:	9004      	str	r0, [sp, #16]
     968:	9105      	str	r1, [sp, #20]
     96a:	2200      	movs	r2, #0
     96c:	4b29      	ldr	r3, [pc, #164]	; (a14 <__kernel_cos+0x218>)
     96e:	0020      	movs	r0, r4
     970:	0029      	movs	r1, r5
     972:	f001 ff69 	bl	2848 <__aeabi_dmul>
     976:	0032      	movs	r2, r6
     978:	003b      	movs	r3, r7
     97a:	f002 f9df 	bl	2d3c <__aeabi_dsub>
     97e:	9a02      	ldr	r2, [sp, #8]
     980:	9b03      	ldr	r3, [sp, #12]
     982:	0006      	movs	r6, r0
     984:	000f      	movs	r7, r1
     986:	0020      	movs	r0, r4
     988:	0029      	movs	r1, r5
     98a:	f001 ff5d 	bl	2848 <__aeabi_dmul>
     98e:	9a00      	ldr	r2, [sp, #0]
     990:	9b01      	ldr	r3, [sp, #4]
     992:	0004      	movs	r4, r0
     994:	000d      	movs	r5, r1
     996:	4648      	mov	r0, r9
     998:	4641      	mov	r1, r8
     99a:	f001 ff55 	bl	2848 <__aeabi_dmul>
     99e:	0002      	movs	r2, r0
     9a0:	000b      	movs	r3, r1
     9a2:	0020      	movs	r0, r4
     9a4:	0029      	movs	r1, r5
     9a6:	f002 f9c9 	bl	2d3c <__aeabi_dsub>
     9aa:	0002      	movs	r2, r0
     9ac:	000b      	movs	r3, r1
     9ae:	0030      	movs	r0, r6
     9b0:	0039      	movs	r1, r7
     9b2:	f002 f9c3 	bl	2d3c <__aeabi_dsub>
     9b6:	0002      	movs	r2, r0
     9b8:	000b      	movs	r3, r1
     9ba:	9804      	ldr	r0, [sp, #16]
     9bc:	9905      	ldr	r1, [sp, #20]
     9be:	f002 f9bd 	bl	2d3c <__aeabi_dsub>
     9c2:	b007      	add	sp, #28
     9c4:	bc0c      	pop	{r2, r3}
     9c6:	4690      	mov	r8, r2
     9c8:	4699      	mov	r9, r3
     9ca:	bdf0      	pop	{r4, r5, r6, r7, pc}
     9cc:	4b16      	ldr	r3, [pc, #88]	; (a28 <__kernel_cos+0x22c>)
     9ce:	2600      	movs	r6, #0
     9d0:	9204      	str	r2, [sp, #16]
     9d2:	9305      	str	r3, [sp, #20]
     9d4:	4f15      	ldr	r7, [pc, #84]	; (a2c <__kernel_cos+0x230>)
     9d6:	e7c8      	b.n	96a <__kernel_cos+0x16e>
     9d8:	2000      	movs	r0, #0
     9da:	490f      	ldr	r1, [pc, #60]	; (a18 <__kernel_cos+0x21c>)
     9dc:	e7f1      	b.n	9c2 <__kernel_cos+0x1c6>
     9de:	46c0      	nop			; (mov r8, r8)
     9e0:	3e3fffff 	.word	0x3e3fffff
     9e4:	be8838d4 	.word	0xbe8838d4
     9e8:	bda8fae9 	.word	0xbda8fae9
     9ec:	bdb4b1c4 	.word	0xbdb4b1c4
     9f0:	3e21ee9e 	.word	0x3e21ee9e
     9f4:	809c52ad 	.word	0x809c52ad
     9f8:	3e927e4f 	.word	0x3e927e4f
     9fc:	19cb1590 	.word	0x19cb1590
     a00:	3efa01a0 	.word	0x3efa01a0
     a04:	16c15177 	.word	0x16c15177
     a08:	3f56c16c 	.word	0x3f56c16c
     a0c:	5555554c 	.word	0x5555554c
     a10:	3fa55555 	.word	0x3fa55555
     a14:	3fe00000 	.word	0x3fe00000
     a18:	3ff00000 	.word	0x3ff00000
     a1c:	3fd33332 	.word	0x3fd33332
     a20:	3fe90000 	.word	0x3fe90000
     a24:	ffe00000 	.word	0xffe00000
     a28:	3fe70000 	.word	0x3fe70000
     a2c:	3fd20000 	.word	0x3fd20000

00000a30 <__kernel_rem_pio2>:
     a30:	b5f0      	push	{r4, r5, r6, r7, lr}
     a32:	4656      	mov	r6, sl
     a34:	464d      	mov	r5, r9
     a36:	4644      	mov	r4, r8
     a38:	465f      	mov	r7, fp
     a3a:	b4f0      	push	{r4, r5, r6, r7}
     a3c:	4c8e      	ldr	r4, [pc, #568]	; (c78 <__kernel_rem_pio2+0x248>)
     a3e:	44a5      	add	sp, r4
     a40:	9109      	str	r1, [sp, #36]	; 0x24
     a42:	0019      	movs	r1, r3
     a44:	0014      	movs	r4, r2
     a46:	9aa8      	ldr	r2, [sp, #672]	; 0x2a0
     a48:	930b      	str	r3, [sp, #44]	; 0x2c
     a4a:	4b8c      	ldr	r3, [pc, #560]	; (c7c <__kernel_rem_pio2+0x24c>)
     a4c:	0092      	lsls	r2, r2, #2
     a4e:	58d2      	ldr	r2, [r2, r3]
     a50:	000b      	movs	r3, r1
     a52:	9002      	str	r0, [sp, #8]
     a54:	3b01      	subs	r3, #1
     a56:	1ee0      	subs	r0, r4, #3
     a58:	2118      	movs	r1, #24
     a5a:	001d      	movs	r5, r3
     a5c:	0016      	movs	r6, r2
     a5e:	9208      	str	r2, [sp, #32]
     a60:	9300      	str	r3, [sp, #0]
     a62:	f000 fe77 	bl	1754 <__aeabi_idiv>
     a66:	43c3      	mvns	r3, r0
     a68:	0002      	movs	r2, r0
     a6a:	17db      	asrs	r3, r3, #31
     a6c:	401a      	ands	r2, r3
     a6e:	0013      	movs	r3, r2
     a70:	0011      	movs	r1, r2
     a72:	3301      	adds	r3, #1
     a74:	920e      	str	r2, [sp, #56]	; 0x38
     a76:	009a      	lsls	r2, r3, #2
     a78:	1a9b      	subs	r3, r3, r2
     a7a:	00db      	lsls	r3, r3, #3
     a7c:	191b      	adds	r3, r3, r4
     a7e:	9306      	str	r3, [sp, #24]
     a80:	1b4c      	subs	r4, r1, r5
     a82:	1976      	adds	r6, r6, r5
     a84:	d418      	bmi.n	ab8 <__kernel_rem_pio2+0x88>
     a86:	9ba9      	ldr	r3, [sp, #676]	; 0x2a4
     a88:	00a5      	lsls	r5, r4, #2
     a8a:	469c      	mov	ip, r3
     a8c:	1936      	adds	r6, r6, r4
     a8e:	af26      	add	r7, sp, #152	; 0x98
     a90:	4465      	add	r5, ip
     a92:	3601      	adds	r6, #1
     a94:	e007      	b.n	aa6 <__kernel_rem_pio2+0x76>
     a96:	6828      	ldr	r0, [r5, #0]
     a98:	f002 fcda 	bl	3450 <__aeabi_i2d>
     a9c:	3401      	adds	r4, #1
     a9e:	c703      	stmia	r7!, {r0, r1}
     aa0:	3504      	adds	r5, #4
     aa2:	42b4      	cmp	r4, r6
     aa4:	d008      	beq.n	ab8 <__kernel_rem_pio2+0x88>
     aa6:	2c00      	cmp	r4, #0
     aa8:	daf5      	bge.n	a96 <__kernel_rem_pio2+0x66>
     aaa:	2000      	movs	r0, #0
     aac:	2100      	movs	r1, #0
     aae:	3401      	adds	r4, #1
     ab0:	c703      	stmia	r7!, {r0, r1}
     ab2:	3504      	adds	r5, #4
     ab4:	42b4      	cmp	r4, r6
     ab6:	d1f6      	bne.n	aa6 <__kernel_rem_pio2+0x76>
     ab8:	9b08      	ldr	r3, [sp, #32]
     aba:	2b00      	cmp	r3, #0
     abc:	da01      	bge.n	ac2 <__kernel_rem_pio2+0x92>
     abe:	f000 fbf9 	bl	12b4 <__kernel_rem_pio2+0x884>
     ac2:	ab76      	add	r3, sp, #472	; 0x1d8
     ac4:	0019      	movs	r1, r3
     ac6:	468b      	mov	fp, r1
     ac8:	aa26      	add	r2, sp, #152	; 0x98
     aca:	4691      	mov	r9, r2
     acc:	9a08      	ldr	r2, [sp, #32]
     ace:	930a      	str	r3, [sp, #40]	; 0x28
     ad0:	3201      	adds	r2, #1
     ad2:	00d2      	lsls	r2, r2, #3
     ad4:	4493      	add	fp, r2
     ad6:	9a02      	ldr	r2, [sp, #8]
     ad8:	469a      	mov	sl, r3
     ada:	4690      	mov	r8, r2
     adc:	9b00      	ldr	r3, [sp, #0]
     ade:	00db      	lsls	r3, r3, #3
     ae0:	4499      	add	r9, r3
     ae2:	3308      	adds	r3, #8
     ae4:	4498      	add	r8, r3
     ae6:	9b00      	ldr	r3, [sp, #0]
     ae8:	2b00      	cmp	r3, #0
     aea:	da00      	bge.n	aee <__kernel_rem_pio2+0xbe>
     aec:	e1b5      	b.n	e5a <__kernel_rem_pio2+0x42a>
     aee:	464c      	mov	r4, r9
     af0:	2600      	movs	r6, #0
     af2:	2700      	movs	r7, #0
     af4:	9d02      	ldr	r5, [sp, #8]
     af6:	6822      	ldr	r2, [r4, #0]
     af8:	6863      	ldr	r3, [r4, #4]
     afa:	cd03      	ldmia	r5!, {r0, r1}
     afc:	f001 fea4 	bl	2848 <__aeabi_dmul>
     b00:	0002      	movs	r2, r0
     b02:	000b      	movs	r3, r1
     b04:	0030      	movs	r0, r6
     b06:	0039      	movs	r1, r7
     b08:	f000 ff4e 	bl	19a8 <__aeabi_dadd>
     b0c:	3c08      	subs	r4, #8
     b0e:	0006      	movs	r6, r0
     b10:	000f      	movs	r7, r1
     b12:	4545      	cmp	r5, r8
     b14:	d1ef      	bne.n	af6 <__kernel_rem_pio2+0xc6>
     b16:	4653      	mov	r3, sl
     b18:	c3c0      	stmia	r3!, {r6, r7}
     b1a:	469a      	mov	sl, r3
     b1c:	2308      	movs	r3, #8
     b1e:	469c      	mov	ip, r3
     b20:	44e1      	add	r9, ip
     b22:	45da      	cmp	sl, fp
     b24:	d1df      	bne.n	ae6 <__kernel_rem_pio2+0xb6>
     b26:	9908      	ldr	r1, [sp, #32]
     b28:	4a55      	ldr	r2, [pc, #340]	; (c80 <__kernel_rem_pio2+0x250>)
     b2a:	000b      	movs	r3, r1
     b2c:	4694      	mov	ip, r2
     b2e:	4463      	add	r3, ip
     b30:	009b      	lsls	r3, r3, #2
     b32:	a812      	add	r0, sp, #72	; 0x48
     b34:	4684      	mov	ip, r0
     b36:	001a      	movs	r2, r3
     b38:	9802      	ldr	r0, [sp, #8]
     b3a:	4462      	add	r2, ip
     b3c:	4683      	mov	fp, r0
     b3e:	920d      	str	r2, [sp, #52]	; 0x34
     b40:	9a0b      	ldr	r2, [sp, #44]	; 0x2c
     b42:	3304      	adds	r3, #4
     b44:	00d2      	lsls	r2, r2, #3
     b46:	4463      	add	r3, ip
     b48:	4493      	add	fp, r2
     b4a:	930f      	str	r3, [sp, #60]	; 0x3c
     b4c:	9105      	str	r1, [sp, #20]
     b4e:	9a05      	ldr	r2, [sp, #20]
     b50:	980a      	ldr	r0, [sp, #40]	; 0x28
     b52:	00d3      	lsls	r3, r2, #3
     b54:	0019      	movs	r1, r3
     b56:	930c      	str	r3, [sp, #48]	; 0x30
     b58:	468c      	mov	ip, r1
     b5a:	0003      	movs	r3, r0
     b5c:	4463      	add	r3, ip
     b5e:	681e      	ldr	r6, [r3, #0]
     b60:	685f      	ldr	r7, [r3, #4]
     b62:	2a00      	cmp	r2, #0
     b64:	dd34      	ble.n	bd0 <__kernel_rem_pio2+0x1a0>
     b66:	ab12      	add	r3, sp, #72	; 0x48
     b68:	4699      	mov	r9, r3
     b6a:	0013      	movs	r3, r2
     b6c:	4a45      	ldr	r2, [pc, #276]	; (c84 <__kernel_rem_pio2+0x254>)
     b6e:	4680      	mov	r8, r0
     b70:	4694      	mov	ip, r2
     b72:	4463      	add	r3, ip
     b74:	00db      	lsls	r3, r3, #3
     b76:	4498      	add	r8, r3
     b78:	ab74      	add	r3, sp, #464	; 0x1d0
     b7a:	469a      	mov	sl, r3
     b7c:	2200      	movs	r2, #0
     b7e:	4b42      	ldr	r3, [pc, #264]	; (c88 <__kernel_rem_pio2+0x258>)
     b80:	0030      	movs	r0, r6
     b82:	0039      	movs	r1, r7
     b84:	f001 fe60 	bl	2848 <__aeabi_dmul>
     b88:	f002 fc2c 	bl	33e4 <__aeabi_d2iz>
     b8c:	f002 fc60 	bl	3450 <__aeabi_i2d>
     b90:	2200      	movs	r2, #0
     b92:	4b3e      	ldr	r3, [pc, #248]	; (c8c <__kernel_rem_pio2+0x25c>)
     b94:	0004      	movs	r4, r0
     b96:	000d      	movs	r5, r1
     b98:	f001 fe56 	bl	2848 <__aeabi_dmul>
     b9c:	0002      	movs	r2, r0
     b9e:	000b      	movs	r3, r1
     ba0:	0030      	movs	r0, r6
     ba2:	0039      	movs	r1, r7
     ba4:	f002 f8ca 	bl	2d3c <__aeabi_dsub>
     ba8:	f002 fc1c 	bl	33e4 <__aeabi_d2iz>
     bac:	464b      	mov	r3, r9
     bae:	c301      	stmia	r3!, {r0}
     bb0:	4699      	mov	r9, r3
     bb2:	4643      	mov	r3, r8
     bb4:	0020      	movs	r0, r4
     bb6:	681a      	ldr	r2, [r3, #0]
     bb8:	685b      	ldr	r3, [r3, #4]
     bba:	0029      	movs	r1, r5
     bbc:	f000 fef4 	bl	19a8 <__aeabi_dadd>
     bc0:	2308      	movs	r3, #8
     bc2:	425b      	negs	r3, r3
     bc4:	469c      	mov	ip, r3
     bc6:	44e0      	add	r8, ip
     bc8:	0006      	movs	r6, r0
     bca:	000f      	movs	r7, r1
     bcc:	45d0      	cmp	r8, sl
     bce:	d1d5      	bne.n	b7c <__kernel_rem_pio2+0x14c>
     bd0:	9b06      	ldr	r3, [sp, #24]
     bd2:	0030      	movs	r0, r6
     bd4:	001a      	movs	r2, r3
     bd6:	0039      	movs	r1, r7
     bd8:	4699      	mov	r9, r3
     bda:	f000 fcc1 	bl	1560 <scalbn>
     bde:	23ff      	movs	r3, #255	; 0xff
     be0:	2200      	movs	r2, #0
     be2:	059b      	lsls	r3, r3, #22
     be4:	0004      	movs	r4, r0
     be6:	000d      	movs	r5, r1
     be8:	f001 fe2e 	bl	2848 <__aeabi_dmul>
     bec:	f000 fc20 	bl	1430 <floor>
     bf0:	2200      	movs	r2, #0
     bf2:	4b27      	ldr	r3, [pc, #156]	; (c90 <__kernel_rem_pio2+0x260>)
     bf4:	f001 fe28 	bl	2848 <__aeabi_dmul>
     bf8:	0002      	movs	r2, r0
     bfa:	000b      	movs	r3, r1
     bfc:	0020      	movs	r0, r4
     bfe:	0029      	movs	r1, r5
     c00:	f002 f89c 	bl	2d3c <__aeabi_dsub>
     c04:	0004      	movs	r4, r0
     c06:	000d      	movs	r5, r1
     c08:	f002 fbec 	bl	33e4 <__aeabi_d2iz>
     c0c:	4680      	mov	r8, r0
     c0e:	f002 fc1f 	bl	3450 <__aeabi_i2d>
     c12:	0002      	movs	r2, r0
     c14:	000b      	movs	r3, r1
     c16:	0020      	movs	r0, r4
     c18:	0029      	movs	r1, r5
     c1a:	f002 f88f 	bl	2d3c <__aeabi_dsub>
     c1e:	464c      	mov	r4, r9
     c20:	0006      	movs	r6, r0
     c22:	000f      	movs	r7, r1
     c24:	2c00      	cmp	r4, #0
     c26:	dc00      	bgt.n	c2a <__kernel_rem_pio2+0x1fa>
     c28:	e0f8      	b.n	e1c <__kernel_rem_pio2+0x3ec>
     c2a:	9b05      	ldr	r3, [sp, #20]
     c2c:	2018      	movs	r0, #24
     c2e:	1e5a      	subs	r2, r3, #1
     c30:	0092      	lsls	r2, r2, #2
     c32:	ab12      	add	r3, sp, #72	; 0x48
     c34:	589b      	ldr	r3, [r3, r2]
     c36:	1b00      	subs	r0, r0, r4
     c38:	0019      	movs	r1, r3
     c3a:	4101      	asrs	r1, r0
     c3c:	4488      	add	r8, r1
     c3e:	4081      	lsls	r1, r0
     c40:	1a5b      	subs	r3, r3, r1
     c42:	a912      	add	r1, sp, #72	; 0x48
     c44:	508b      	str	r3, [r1, r2]
     c46:	2217      	movs	r2, #23
     c48:	1b12      	subs	r2, r2, r4
     c4a:	4113      	asrs	r3, r2
     c4c:	9307      	str	r3, [sp, #28]
     c4e:	9b07      	ldr	r3, [sp, #28]
     c50:	2b00      	cmp	r3, #0
     c52:	dd4b      	ble.n	cec <__kernel_rem_pio2+0x2bc>
     c54:	2301      	movs	r3, #1
     c56:	469c      	mov	ip, r3
     c58:	9b05      	ldr	r3, [sp, #20]
     c5a:	44e0      	add	r8, ip
     c5c:	2b00      	cmp	r3, #0
     c5e:	dc00      	bgt.n	c62 <__kernel_rem_pio2+0x232>
     c60:	e2f2      	b.n	1248 <__kernel_rem_pio2+0x818>
     c62:	2580      	movs	r5, #128	; 0x80
     c64:	9610      	str	r6, [sp, #64]	; 0x40
     c66:	9711      	str	r7, [sp, #68]	; 0x44
     c68:	ab12      	add	r3, sp, #72	; 0x48
     c6a:	2100      	movs	r1, #0
     c6c:	2400      	movs	r4, #0
     c6e:	4809      	ldr	r0, [pc, #36]	; (c94 <__kernel_rem_pio2+0x264>)
     c70:	046d      	lsls	r5, r5, #17
     c72:	9f05      	ldr	r7, [sp, #20]
     c74:	e019      	b.n	caa <__kernel_rem_pio2+0x27a>
     c76:	46c0      	nop			; (mov r8, r8)
     c78:	fffffd84 	.word	0xfffffd84
     c7c:	000036e4 	.word	0x000036e4
     c80:	3ffffffe 	.word	0x3ffffffe
     c84:	1fffffff 	.word	0x1fffffff
     c88:	3e700000 	.word	0x3e700000
     c8c:	41700000 	.word	0x41700000
     c90:	40200000 	.word	0x40200000
     c94:	00ffffff 	.word	0x00ffffff
     c98:	2a00      	cmp	r2, #0
     c9a:	d002      	beq.n	ca2 <__kernel_rem_pio2+0x272>
     c9c:	1aaa      	subs	r2, r5, r2
     c9e:	601a      	str	r2, [r3, #0]
     ca0:	3401      	adds	r4, #1
     ca2:	3101      	adds	r1, #1
     ca4:	3304      	adds	r3, #4
     ca6:	428f      	cmp	r7, r1
     ca8:	dd09      	ble.n	cbe <__kernel_rem_pio2+0x28e>
     caa:	681a      	ldr	r2, [r3, #0]
     cac:	2c00      	cmp	r4, #0
     cae:	d0f3      	beq.n	c98 <__kernel_rem_pio2+0x268>
     cb0:	1a82      	subs	r2, r0, r2
     cb2:	3101      	adds	r1, #1
     cb4:	601a      	str	r2, [r3, #0]
     cb6:	2401      	movs	r4, #1
     cb8:	3304      	adds	r3, #4
     cba:	428f      	cmp	r7, r1
     cbc:	dcf5      	bgt.n	caa <__kernel_rem_pio2+0x27a>
     cbe:	9e10      	ldr	r6, [sp, #64]	; 0x40
     cc0:	9f11      	ldr	r7, [sp, #68]	; 0x44
     cc2:	9b06      	ldr	r3, [sp, #24]
     cc4:	2b00      	cmp	r3, #0
     cc6:	dd0e      	ble.n	ce6 <__kernel_rem_pio2+0x2b6>
     cc8:	2b01      	cmp	r3, #1
     cca:	d100      	bne.n	cce <__kernel_rem_pio2+0x29e>
     ccc:	e0b1      	b.n	e32 <__kernel_rem_pio2+0x402>
     cce:	2b02      	cmp	r3, #2
     cd0:	d109      	bne.n	ce6 <__kernel_rem_pio2+0x2b6>
     cd2:	9b05      	ldr	r3, [sp, #20]
     cd4:	a912      	add	r1, sp, #72	; 0x48
     cd6:	1e5a      	subs	r2, r3, #1
     cd8:	0092      	lsls	r2, r2, #2
     cda:	ab12      	add	r3, sp, #72	; 0x48
     cdc:	589b      	ldr	r3, [r3, r2]
     cde:	9310      	str	r3, [sp, #64]	; 0x40
     ce0:	029b      	lsls	r3, r3, #10
     ce2:	0a9b      	lsrs	r3, r3, #10
     ce4:	508b      	str	r3, [r1, r2]
     ce6:	9b07      	ldr	r3, [sp, #28]
     ce8:	2b02      	cmp	r3, #2
     cea:	d07e      	beq.n	dea <__kernel_rem_pio2+0x3ba>
     cec:	2300      	movs	r3, #0
     cee:	2200      	movs	r2, #0
     cf0:	0030      	movs	r0, r6
     cf2:	0039      	movs	r1, r7
     cf4:	f000 fe2a 	bl	194c <__aeabi_dcmpeq>
     cf8:	9b05      	ldr	r3, [sp, #20]
     cfa:	2800      	cmp	r0, #0
     cfc:	d100      	bne.n	d00 <__kernel_rem_pio2+0x2d0>
     cfe:	e26b      	b.n	11d8 <__kernel_rem_pio2+0x7a8>
     d00:	9908      	ldr	r1, [sp, #32]
     d02:	1e5a      	subs	r2, r3, #1
     d04:	4291      	cmp	r1, r2
     d06:	dc10      	bgt.n	d2a <__kernel_rem_pio2+0x2fa>
     d08:	49bf      	ldr	r1, [pc, #764]	; (1008 <__kernel_rem_pio2+0x5d8>)
     d0a:	980f      	ldr	r0, [sp, #60]	; 0x3c
     d0c:	468c      	mov	ip, r1
     d0e:	a912      	add	r1, sp, #72	; 0x48
     d10:	4463      	add	r3, ip
     d12:	468c      	mov	ip, r1
     d14:	2100      	movs	r1, #0
     d16:	009b      	lsls	r3, r3, #2
     d18:	4463      	add	r3, ip
     d1a:	681c      	ldr	r4, [r3, #0]
     d1c:	3b04      	subs	r3, #4
     d1e:	4321      	orrs	r1, r4
     d20:	4283      	cmp	r3, r0
     d22:	d1fa      	bne.n	d1a <__kernel_rem_pio2+0x2ea>
     d24:	2900      	cmp	r1, #0
     d26:	d000      	beq.n	d2a <__kernel_rem_pio2+0x2fa>
     d28:	e0b5      	b.n	e96 <__kernel_rem_pio2+0x466>
     d2a:	9b08      	ldr	r3, [sp, #32]
     d2c:	aa12      	add	r2, sp, #72	; 0x48
     d2e:	3b01      	subs	r3, #1
     d30:	009b      	lsls	r3, r3, #2
     d32:	58d3      	ldr	r3, [r2, r3]
     d34:	2b00      	cmp	r3, #0
     d36:	d000      	beq.n	d3a <__kernel_rem_pio2+0x30a>
     d38:	e284      	b.n	1244 <__kernel_rem_pio2+0x814>
     d3a:	2201      	movs	r2, #1
     d3c:	9b0d      	ldr	r3, [sp, #52]	; 0x34
     d3e:	3b04      	subs	r3, #4
     d40:	6859      	ldr	r1, [r3, #4]
     d42:	3201      	adds	r2, #1
     d44:	2900      	cmp	r1, #0
     d46:	d0fa      	beq.n	d3e <__kernel_rem_pio2+0x30e>
     d48:	9905      	ldr	r1, [sp, #20]
     d4a:	000b      	movs	r3, r1
     d4c:	468c      	mov	ip, r1
     d4e:	3301      	adds	r3, #1
     d50:	4462      	add	r2, ip
     d52:	9207      	str	r2, [sp, #28]
     d54:	4293      	cmp	r3, r2
     d56:	dc42      	bgt.n	dde <__kernel_rem_pio2+0x3ae>
     d58:	9a0e      	ldr	r2, [sp, #56]	; 0x38
     d5a:	4694      	mov	ip, r2
     d5c:	9aa9      	ldr	r2, [sp, #676]	; 0x2a4
     d5e:	4463      	add	r3, ip
     d60:	4692      	mov	sl, r2
     d62:	9a0b      	ldr	r2, [sp, #44]	; 0x2c
     d64:	009b      	lsls	r3, r3, #2
     d66:	4694      	mov	ip, r2
     d68:	aa26      	add	r2, sp, #152	; 0x98
     d6a:	4690      	mov	r8, r2
     d6c:	449a      	add	sl, r3
     d6e:	9b05      	ldr	r3, [sp, #20]
     d70:	9a0a      	ldr	r2, [sp, #40]	; 0x28
     d72:	4463      	add	r3, ip
     d74:	00db      	lsls	r3, r3, #3
     d76:	4498      	add	r8, r3
     d78:	9b0c      	ldr	r3, [sp, #48]	; 0x30
     d7a:	4694      	mov	ip, r2
     d7c:	4699      	mov	r9, r3
     d7e:	9b07      	ldr	r3, [sp, #28]
     d80:	44e1      	add	r9, ip
     d82:	00db      	lsls	r3, r3, #3
     d84:	4463      	add	r3, ip
     d86:	9305      	str	r3, [sp, #20]
     d88:	4653      	mov	r3, sl
     d8a:	6818      	ldr	r0, [r3, #0]
     d8c:	f002 fb60 	bl	3450 <__aeabi_i2d>
     d90:	4643      	mov	r3, r8
     d92:	6018      	str	r0, [r3, #0]
     d94:	6059      	str	r1, [r3, #4]
     d96:	9b00      	ldr	r3, [sp, #0]
     d98:	2b00      	cmp	r3, #0
     d9a:	db23      	blt.n	de4 <__kernel_rem_pio2+0x3b4>
     d9c:	4644      	mov	r4, r8
     d9e:	2600      	movs	r6, #0
     da0:	2700      	movs	r7, #0
     da2:	9d02      	ldr	r5, [sp, #8]
     da4:	6822      	ldr	r2, [r4, #0]
     da6:	6863      	ldr	r3, [r4, #4]
     da8:	cd03      	ldmia	r5!, {r0, r1}
     daa:	f001 fd4d 	bl	2848 <__aeabi_dmul>
     dae:	0002      	movs	r2, r0
     db0:	000b      	movs	r3, r1
     db2:	0030      	movs	r0, r6
     db4:	0039      	movs	r1, r7
     db6:	f000 fdf7 	bl	19a8 <__aeabi_dadd>
     dba:	3c08      	subs	r4, #8
     dbc:	0006      	movs	r6, r0
     dbe:	000f      	movs	r7, r1
     dc0:	455d      	cmp	r5, fp
     dc2:	d1ef      	bne.n	da4 <__kernel_rem_pio2+0x374>
     dc4:	464b      	mov	r3, r9
     dc6:	609e      	str	r6, [r3, #8]
     dc8:	60df      	str	r7, [r3, #12]
     dca:	2304      	movs	r3, #4
     dcc:	469c      	mov	ip, r3
     dce:	3304      	adds	r3, #4
     dd0:	44e2      	add	sl, ip
     dd2:	469c      	mov	ip, r3
     dd4:	9b05      	ldr	r3, [sp, #20]
     dd6:	44e1      	add	r9, ip
     dd8:	44e0      	add	r8, ip
     dda:	4599      	cmp	r9, r3
     ddc:	d1d4      	bne.n	d88 <__kernel_rem_pio2+0x358>
     dde:	9b07      	ldr	r3, [sp, #28]
     de0:	9305      	str	r3, [sp, #20]
     de2:	e6b4      	b.n	b4e <__kernel_rem_pio2+0x11e>
     de4:	2600      	movs	r6, #0
     de6:	2700      	movs	r7, #0
     de8:	e7ec      	b.n	dc4 <__kernel_rem_pio2+0x394>
     dea:	0032      	movs	r2, r6
     dec:	003b      	movs	r3, r7
     dee:	2000      	movs	r0, #0
     df0:	4986      	ldr	r1, [pc, #536]	; (100c <__kernel_rem_pio2+0x5dc>)
     df2:	f001 ffa3 	bl	2d3c <__aeabi_dsub>
     df6:	0006      	movs	r6, r0
     df8:	000f      	movs	r7, r1
     dfa:	2c00      	cmp	r4, #0
     dfc:	d100      	bne.n	e00 <__kernel_rem_pio2+0x3d0>
     dfe:	e775      	b.n	cec <__kernel_rem_pio2+0x2bc>
     e00:	9a06      	ldr	r2, [sp, #24]
     e02:	2000      	movs	r0, #0
     e04:	4981      	ldr	r1, [pc, #516]	; (100c <__kernel_rem_pio2+0x5dc>)
     e06:	f000 fbab 	bl	1560 <scalbn>
     e0a:	0002      	movs	r2, r0
     e0c:	000b      	movs	r3, r1
     e0e:	0030      	movs	r0, r6
     e10:	0039      	movs	r1, r7
     e12:	f001 ff93 	bl	2d3c <__aeabi_dsub>
     e16:	0006      	movs	r6, r0
     e18:	000f      	movs	r7, r1
     e1a:	e767      	b.n	cec <__kernel_rem_pio2+0x2bc>
     e1c:	9b06      	ldr	r3, [sp, #24]
     e1e:	2b00      	cmp	r3, #0
     e20:	d112      	bne.n	e48 <__kernel_rem_pio2+0x418>
     e22:	9b05      	ldr	r3, [sp, #20]
     e24:	aa12      	add	r2, sp, #72	; 0x48
     e26:	3b01      	subs	r3, #1
     e28:	009b      	lsls	r3, r3, #2
     e2a:	58d5      	ldr	r5, [r2, r3]
     e2c:	15eb      	asrs	r3, r5, #23
     e2e:	9307      	str	r3, [sp, #28]
     e30:	e70d      	b.n	c4e <__kernel_rem_pio2+0x21e>
     e32:	9b05      	ldr	r3, [sp, #20]
     e34:	a912      	add	r1, sp, #72	; 0x48
     e36:	1e5a      	subs	r2, r3, #1
     e38:	0092      	lsls	r2, r2, #2
     e3a:	ab12      	add	r3, sp, #72	; 0x48
     e3c:	589b      	ldr	r3, [r3, r2]
     e3e:	9310      	str	r3, [sp, #64]	; 0x40
     e40:	025b      	lsls	r3, r3, #9
     e42:	0a5b      	lsrs	r3, r3, #9
     e44:	508b      	str	r3, [r1, r2]
     e46:	e74e      	b.n	ce6 <__kernel_rem_pio2+0x2b6>
     e48:	2200      	movs	r2, #0
     e4a:	4b71      	ldr	r3, [pc, #452]	; (1010 <__kernel_rem_pio2+0x5e0>)
     e4c:	f000 fda2 	bl	1994 <__aeabi_dcmpge>
     e50:	2800      	cmp	r0, #0
     e52:	d10e      	bne.n	e72 <__kernel_rem_pio2+0x442>
     e54:	2300      	movs	r3, #0
     e56:	9307      	str	r3, [sp, #28]
     e58:	e748      	b.n	cec <__kernel_rem_pio2+0x2bc>
     e5a:	4653      	mov	r3, sl
     e5c:	2600      	movs	r6, #0
     e5e:	2700      	movs	r7, #0
     e60:	c3c0      	stmia	r3!, {r6, r7}
     e62:	469a      	mov	sl, r3
     e64:	2308      	movs	r3, #8
     e66:	469c      	mov	ip, r3
     e68:	44e1      	add	r9, ip
     e6a:	45da      	cmp	sl, fp
     e6c:	d000      	beq.n	e70 <__kernel_rem_pio2+0x440>
     e6e:	e63a      	b.n	ae6 <__kernel_rem_pio2+0xb6>
     e70:	e659      	b.n	b26 <__kernel_rem_pio2+0xf6>
     e72:	2301      	movs	r3, #1
     e74:	469c      	mov	ip, r3
     e76:	3301      	adds	r3, #1
     e78:	9307      	str	r3, [sp, #28]
     e7a:	9b05      	ldr	r3, [sp, #20]
     e7c:	44e0      	add	r8, ip
     e7e:	2b00      	cmp	r3, #0
     e80:	dd00      	ble.n	e84 <__kernel_rem_pio2+0x454>
     e82:	e6ee      	b.n	c62 <__kernel_rem_pio2+0x232>
     e84:	0032      	movs	r2, r6
     e86:	003b      	movs	r3, r7
     e88:	2000      	movs	r0, #0
     e8a:	4960      	ldr	r1, [pc, #384]	; (100c <__kernel_rem_pio2+0x5dc>)
     e8c:	f001 ff56 	bl	2d3c <__aeabi_dsub>
     e90:	0006      	movs	r6, r0
     e92:	000f      	movs	r7, r1
     e94:	e72a      	b.n	cec <__kernel_rem_pio2+0x2bc>
     e96:	4643      	mov	r3, r8
     e98:	930b      	str	r3, [sp, #44]	; 0x2c
     e9a:	9b06      	ldr	r3, [sp, #24]
     e9c:	a812      	add	r0, sp, #72	; 0x48
     e9e:	3b18      	subs	r3, #24
     ea0:	0019      	movs	r1, r3
     ea2:	9306      	str	r3, [sp, #24]
     ea4:	0093      	lsls	r3, r2, #2
     ea6:	58c3      	ldr	r3, [r0, r3]
     ea8:	9200      	str	r2, [sp, #0]
     eaa:	2b00      	cmp	r3, #0
     eac:	d10f      	bne.n	ece <__kernel_rem_pio2+0x49e>
     eae:	4856      	ldr	r0, [pc, #344]	; (1008 <__kernel_rem_pio2+0x5d8>)
     eb0:	0013      	movs	r3, r2
     eb2:	4684      	mov	ip, r0
     eb4:	a812      	add	r0, sp, #72	; 0x48
     eb6:	4463      	add	r3, ip
     eb8:	4684      	mov	ip, r0
     eba:	009b      	lsls	r3, r3, #2
     ebc:	4463      	add	r3, ip
     ebe:	3b04      	subs	r3, #4
     ec0:	6858      	ldr	r0, [r3, #4]
     ec2:	3a01      	subs	r2, #1
     ec4:	3918      	subs	r1, #24
     ec6:	2800      	cmp	r0, #0
     ec8:	d0f9      	beq.n	ebe <__kernel_rem_pio2+0x48e>
     eca:	9200      	str	r2, [sp, #0]
     ecc:	9106      	str	r1, [sp, #24]
     ece:	9a06      	ldr	r2, [sp, #24]
     ed0:	2000      	movs	r0, #0
     ed2:	494e      	ldr	r1, [pc, #312]	; (100c <__kernel_rem_pio2+0x5dc>)
     ed4:	f000 fb44 	bl	1560 <scalbn>
     ed8:	9b00      	ldr	r3, [sp, #0]
     eda:	0004      	movs	r4, r0
     edc:	000d      	movs	r5, r1
     ede:	2b00      	cmp	r3, #0
     ee0:	da00      	bge.n	ee4 <__kernel_rem_pio2+0x4b4>
     ee2:	e1b3      	b.n	124c <__kernel_rem_pio2+0x81c>
     ee4:	aa12      	add	r2, sp, #72	; 0x48
     ee6:	4694      	mov	ip, r2
     ee8:	009f      	lsls	r7, r3, #2
     eea:	00db      	lsls	r3, r3, #3
     eec:	4467      	add	r7, ip
     eee:	469c      	mov	ip, r3
     ef0:	9a0a      	ldr	r2, [sp, #40]	; 0x28
     ef2:	9305      	str	r3, [sp, #20]
     ef4:	4462      	add	r2, ip
     ef6:	4693      	mov	fp, r2
     ef8:	0016      	movs	r6, r2
     efa:	6838      	ldr	r0, [r7, #0]
     efc:	f002 faa8 	bl	3450 <__aeabi_i2d>
     f00:	0022      	movs	r2, r4
     f02:	002b      	movs	r3, r5
     f04:	f001 fca0 	bl	2848 <__aeabi_dmul>
     f08:	4b42      	ldr	r3, [pc, #264]	; (1014 <__kernel_rem_pio2+0x5e4>)
     f0a:	6030      	str	r0, [r6, #0]
     f0c:	6071      	str	r1, [r6, #4]
     f0e:	2200      	movs	r2, #0
     f10:	0020      	movs	r0, r4
     f12:	0029      	movs	r1, r5
     f14:	f001 fc98 	bl	2848 <__aeabi_dmul>
     f18:	3e08      	subs	r6, #8
     f1a:	ab74      	add	r3, sp, #464	; 0x1d0
     f1c:	0004      	movs	r4, r0
     f1e:	000d      	movs	r5, r1
     f20:	3f04      	subs	r7, #4
     f22:	42b3      	cmp	r3, r6
     f24:	d1e9      	bne.n	efa <__kernel_rem_pio2+0x4ca>
     f26:	2300      	movs	r3, #0
     f28:	469a      	mov	sl, r3
     f2a:	ab4e      	add	r3, sp, #312	; 0x138
     f2c:	9302      	str	r3, [sp, #8]
     f2e:	9b08      	ldr	r3, [sp, #32]
     f30:	4699      	mov	r9, r3
     f32:	464b      	mov	r3, r9
     f34:	2600      	movs	r6, #0
     f36:	2700      	movs	r7, #0
     f38:	2b00      	cmp	r3, #0
     f3a:	db21      	blt.n	f80 <__kernel_rem_pio2+0x550>
     f3c:	2080      	movs	r0, #128	; 0x80
     f3e:	4b36      	ldr	r3, [pc, #216]	; (1018 <__kernel_rem_pio2+0x5e8>)
     f40:	465d      	mov	r5, fp
     f42:	4698      	mov	r8, r3
     f44:	05c0      	lsls	r0, r0, #23
     f46:	4935      	ldr	r1, [pc, #212]	; (101c <__kernel_rem_pio2+0x5ec>)
     f48:	2600      	movs	r6, #0
     f4a:	2700      	movs	r7, #0
     f4c:	2400      	movs	r4, #0
     f4e:	e008      	b.n	f62 <__kernel_rem_pio2+0x532>
     f50:	2308      	movs	r3, #8
     f52:	469c      	mov	ip, r3
     f54:	3508      	adds	r5, #8
     f56:	44e0      	add	r8, ip
     f58:	45a2      	cmp	sl, r4
     f5a:	db11      	blt.n	f80 <__kernel_rem_pio2+0x550>
     f5c:	4643      	mov	r3, r8
     f5e:	6818      	ldr	r0, [r3, #0]
     f60:	6859      	ldr	r1, [r3, #4]
     f62:	682a      	ldr	r2, [r5, #0]
     f64:	686b      	ldr	r3, [r5, #4]
     f66:	f001 fc6f 	bl	2848 <__aeabi_dmul>
     f6a:	0002      	movs	r2, r0
     f6c:	000b      	movs	r3, r1
     f6e:	0030      	movs	r0, r6
     f70:	0039      	movs	r1, r7
     f72:	f000 fd19 	bl	19a8 <__aeabi_dadd>
     f76:	3401      	adds	r4, #1
     f78:	0006      	movs	r6, r0
     f7a:	000f      	movs	r7, r1
     f7c:	45a1      	cmp	r9, r4
     f7e:	dae7      	bge.n	f50 <__kernel_rem_pio2+0x520>
     f80:	9a02      	ldr	r2, [sp, #8]
     f82:	4653      	mov	r3, sl
     f84:	4694      	mov	ip, r2
     f86:	00db      	lsls	r3, r3, #3
     f88:	4463      	add	r3, ip
     f8a:	601e      	str	r6, [r3, #0]
     f8c:	605f      	str	r7, [r3, #4]
     f8e:	2301      	movs	r3, #1
     f90:	469c      	mov	ip, r3
     f92:	3b09      	subs	r3, #9
     f94:	44e2      	add	sl, ip
     f96:	469c      	mov	ip, r3
     f98:	ab74      	add	r3, sp, #464	; 0x1d0
     f9a:	44e3      	add	fp, ip
     f9c:	459b      	cmp	fp, r3
     f9e:	d1c8      	bne.n	f32 <__kernel_rem_pio2+0x502>
     fa0:	9b02      	ldr	r3, [sp, #8]
     fa2:	4699      	mov	r9, r3
     fa4:	9ba8      	ldr	r3, [sp, #672]	; 0x2a0
     fa6:	2b02      	cmp	r3, #2
     fa8:	dd00      	ble.n	fac <__kernel_rem_pio2+0x57c>
     faa:	e082      	b.n	10b2 <__kernel_rem_pio2+0x682>
     fac:	2b00      	cmp	r3, #0
     fae:	dc37      	bgt.n	1020 <__kernel_rem_pio2+0x5f0>
     fb0:	d11d      	bne.n	fee <__kernel_rem_pio2+0x5be>
     fb2:	9b05      	ldr	r3, [sp, #20]
     fb4:	2500      	movs	r5, #0
     fb6:	444b      	add	r3, r9
     fb8:	001e      	movs	r6, r3
     fba:	2400      	movs	r4, #0
     fbc:	6832      	ldr	r2, [r6, #0]
     fbe:	6873      	ldr	r3, [r6, #4]
     fc0:	0028      	movs	r0, r5
     fc2:	0021      	movs	r1, r4
     fc4:	f000 fcf0 	bl	19a8 <__aeabi_dadd>
     fc8:	9b00      	ldr	r3, [sp, #0]
     fca:	0005      	movs	r5, r0
     fcc:	000c      	movs	r4, r1
     fce:	3e08      	subs	r6, #8
     fd0:	1e5a      	subs	r2, r3, #1
     fd2:	9200      	str	r2, [sp, #0]
     fd4:	d2f2      	bcs.n	fbc <__kernel_rem_pio2+0x58c>
     fd6:	9b07      	ldr	r3, [sp, #28]
     fd8:	2b00      	cmp	r3, #0
     fda:	d003      	beq.n	fe4 <__kernel_rem_pio2+0x5b4>
     fdc:	2380      	movs	r3, #128	; 0x80
     fde:	061b      	lsls	r3, r3, #24
     fe0:	469c      	mov	ip, r3
     fe2:	4464      	add	r4, ip
     fe4:	002a      	movs	r2, r5
     fe6:	0023      	movs	r3, r4
     fe8:	9909      	ldr	r1, [sp, #36]	; 0x24
     fea:	600a      	str	r2, [r1, #0]
     fec:	604b      	str	r3, [r1, #4]
     fee:	2007      	movs	r0, #7
     ff0:	9b0b      	ldr	r3, [sp, #44]	; 0x2c
     ff2:	4018      	ands	r0, r3
     ff4:	239f      	movs	r3, #159	; 0x9f
     ff6:	009b      	lsls	r3, r3, #2
     ff8:	449d      	add	sp, r3
     ffa:	bc3c      	pop	{r2, r3, r4, r5}
     ffc:	4690      	mov	r8, r2
     ffe:	4699      	mov	r9, r3
    1000:	46a2      	mov	sl, r4
    1002:	46ab      	mov	fp, r5
    1004:	bdf0      	pop	{r4, r5, r6, r7, pc}
    1006:	46c0      	nop			; (mov r8, r8)
    1008:	3fffffff 	.word	0x3fffffff
    100c:	3ff00000 	.word	0x3ff00000
    1010:	3fe00000 	.word	0x3fe00000
    1014:	3e700000 	.word	0x3e700000
    1018:	000036f8 	.word	0x000036f8
    101c:	3ff921fb 	.word	0x3ff921fb
    1020:	9b05      	ldr	r3, [sp, #20]
    1022:	2000      	movs	r0, #0
    1024:	444b      	add	r3, r9
    1026:	001e      	movs	r6, r3
    1028:	2100      	movs	r1, #0
    102a:	af4c      	add	r7, sp, #304	; 0x130
    102c:	6832      	ldr	r2, [r6, #0]
    102e:	6873      	ldr	r3, [r6, #4]
    1030:	3e08      	subs	r6, #8
    1032:	f000 fcb9 	bl	19a8 <__aeabi_dadd>
    1036:	42be      	cmp	r6, r7
    1038:	d1f8      	bne.n	102c <__kernel_rem_pio2+0x5fc>
    103a:	9b07      	ldr	r3, [sp, #28]
    103c:	2b00      	cmp	r3, #0
    103e:	d024      	beq.n	108a <__kernel_rem_pio2+0x65a>
    1040:	2380      	movs	r3, #128	; 0x80
    1042:	9a09      	ldr	r2, [sp, #36]	; 0x24
    1044:	061b      	lsls	r3, r3, #24
    1046:	18cb      	adds	r3, r1, r3
    1048:	6010      	str	r0, [r2, #0]
    104a:	6053      	str	r3, [r2, #4]
    104c:	000b      	movs	r3, r1
    104e:	0002      	movs	r2, r0
    1050:	984e      	ldr	r0, [sp, #312]	; 0x138
    1052:	994f      	ldr	r1, [sp, #316]	; 0x13c
    1054:	f001 fe72 	bl	2d3c <__aeabi_dsub>
    1058:	9b00      	ldr	r3, [sp, #0]
    105a:	2b00      	cmp	r3, #0
    105c:	dd0b      	ble.n	1076 <__kernel_rem_pio2+0x646>
    105e:	2401      	movs	r4, #1
    1060:	ad50      	add	r5, sp, #320	; 0x140
    1062:	cd0c      	ldmia	r5!, {r2, r3}
    1064:	f000 fca0 	bl	19a8 <__aeabi_dadd>
    1068:	9b00      	ldr	r3, [sp, #0]
    106a:	3401      	adds	r4, #1
    106c:	42a3      	cmp	r3, r4
    106e:	daf8      	bge.n	1062 <__kernel_rem_pio2+0x632>
    1070:	9b07      	ldr	r3, [sp, #28]
    1072:	2b00      	cmp	r3, #0
    1074:	d003      	beq.n	107e <__kernel_rem_pio2+0x64e>
    1076:	2380      	movs	r3, #128	; 0x80
    1078:	061b      	lsls	r3, r3, #24
    107a:	469c      	mov	ip, r3
    107c:	4461      	add	r1, ip
    107e:	000b      	movs	r3, r1
    1080:	0002      	movs	r2, r0
    1082:	9909      	ldr	r1, [sp, #36]	; 0x24
    1084:	608a      	str	r2, [r1, #8]
    1086:	60cb      	str	r3, [r1, #12]
    1088:	e7b1      	b.n	fee <__kernel_rem_pio2+0x5be>
    108a:	0002      	movs	r2, r0
    108c:	000b      	movs	r3, r1
    108e:	9c09      	ldr	r4, [sp, #36]	; 0x24
    1090:	6022      	str	r2, [r4, #0]
    1092:	6063      	str	r3, [r4, #4]
    1094:	000b      	movs	r3, r1
    1096:	0002      	movs	r2, r0
    1098:	984e      	ldr	r0, [sp, #312]	; 0x138
    109a:	994f      	ldr	r1, [sp, #316]	; 0x13c
    109c:	f001 fe4e 	bl	2d3c <__aeabi_dsub>
    10a0:	9b00      	ldr	r3, [sp, #0]
    10a2:	2b00      	cmp	r3, #0
    10a4:	dcdb      	bgt.n	105e <__kernel_rem_pio2+0x62e>
    10a6:	000b      	movs	r3, r1
    10a8:	0002      	movs	r2, r0
    10aa:	9909      	ldr	r1, [sp, #36]	; 0x24
    10ac:	608a      	str	r2, [r1, #8]
    10ae:	60cb      	str	r3, [r1, #12]
    10b0:	e79d      	b.n	fee <__kernel_rem_pio2+0x5be>
    10b2:	9ba8      	ldr	r3, [sp, #672]	; 0x2a0
    10b4:	2b03      	cmp	r3, #3
    10b6:	d19a      	bne.n	fee <__kernel_rem_pio2+0x5be>
    10b8:	9b00      	ldr	r3, [sp, #0]
    10ba:	2b00      	cmp	r3, #0
    10bc:	dc00      	bgt.n	10c0 <__kernel_rem_pio2+0x690>
    10be:	e0e3      	b.n	1288 <__kernel_rem_pio2+0x858>
    10c0:	4a7e      	ldr	r2, [pc, #504]	; (12bc <__kernel_rem_pio2+0x88c>)
    10c2:	9b05      	ldr	r3, [sp, #20]
    10c4:	4694      	mov	ip, r2
    10c6:	444b      	add	r3, r9
    10c8:	681e      	ldr	r6, [r3, #0]
    10ca:	685f      	ldr	r7, [r3, #4]
    10cc:	9b00      	ldr	r3, [sp, #0]
    10ce:	4463      	add	r3, ip
    10d0:	469a      	mov	sl, r3
    10d2:	00db      	lsls	r3, r3, #3
    10d4:	444b      	add	r3, r9
    10d6:	4698      	mov	r8, r3
    10d8:	ab4c      	add	r3, sp, #304	; 0x130
    10da:	469b      	mov	fp, r3
    10dc:	4643      	mov	r3, r8
    10de:	685c      	ldr	r4, [r3, #4]
    10e0:	681b      	ldr	r3, [r3, #0]
    10e2:	0018      	movs	r0, r3
    10e4:	0021      	movs	r1, r4
    10e6:	0032      	movs	r2, r6
    10e8:	003b      	movs	r3, r7
    10ea:	9002      	str	r0, [sp, #8]
    10ec:	9103      	str	r1, [sp, #12]
    10ee:	f000 fc5b 	bl	19a8 <__aeabi_dadd>
    10f2:	0004      	movs	r4, r0
    10f4:	000d      	movs	r5, r1
    10f6:	0002      	movs	r2, r0
    10f8:	000b      	movs	r3, r1
    10fa:	9802      	ldr	r0, [sp, #8]
    10fc:	9903      	ldr	r1, [sp, #12]
    10fe:	f001 fe1d 	bl	2d3c <__aeabi_dsub>
    1102:	003b      	movs	r3, r7
    1104:	0032      	movs	r2, r6
    1106:	f000 fc4f 	bl	19a8 <__aeabi_dadd>
    110a:	4643      	mov	r3, r8
    110c:	6098      	str	r0, [r3, #8]
    110e:	60d9      	str	r1, [r3, #12]
    1110:	601c      	str	r4, [r3, #0]
    1112:	605d      	str	r5, [r3, #4]
    1114:	2308      	movs	r3, #8
    1116:	425b      	negs	r3, r3
    1118:	469c      	mov	ip, r3
    111a:	44e0      	add	r8, ip
    111c:	0026      	movs	r6, r4
    111e:	002f      	movs	r7, r5
    1120:	45c3      	cmp	fp, r8
    1122:	d1db      	bne.n	10dc <__kernel_rem_pio2+0x6ac>
    1124:	9b00      	ldr	r3, [sp, #0]
    1126:	2b01      	cmp	r3, #1
    1128:	dc00      	bgt.n	112c <__kernel_rem_pio2+0x6fc>
    112a:	e0ad      	b.n	1288 <__kernel_rem_pio2+0x858>
    112c:	9b05      	ldr	r3, [sp, #20]
    112e:	46c8      	mov	r8, r9
    1130:	444b      	add	r3, r9
    1132:	681e      	ldr	r6, [r3, #0]
    1134:	685f      	ldr	r7, [r3, #4]
    1136:	4653      	mov	r3, sl
    1138:	00db      	lsls	r3, r3, #3
    113a:	469b      	mov	fp, r3
    113c:	44d8      	add	r8, fp
    113e:	4643      	mov	r3, r8
    1140:	0030      	movs	r0, r6
    1142:	685c      	ldr	r4, [r3, #4]
    1144:	681b      	ldr	r3, [r3, #0]
    1146:	0039      	movs	r1, r7
    1148:	9300      	str	r3, [sp, #0]
    114a:	9401      	str	r4, [sp, #4]
    114c:	001a      	movs	r2, r3
    114e:	0023      	movs	r3, r4
    1150:	f000 fc2a 	bl	19a8 <__aeabi_dadd>
    1154:	0004      	movs	r4, r0
    1156:	000d      	movs	r5, r1
    1158:	0002      	movs	r2, r0
    115a:	000b      	movs	r3, r1
    115c:	9800      	ldr	r0, [sp, #0]
    115e:	9901      	ldr	r1, [sp, #4]
    1160:	f001 fdec 	bl	2d3c <__aeabi_dsub>
    1164:	003b      	movs	r3, r7
    1166:	0032      	movs	r2, r6
    1168:	f000 fc1e 	bl	19a8 <__aeabi_dadd>
    116c:	4643      	mov	r3, r8
    116e:	6098      	str	r0, [r3, #8]
    1170:	60d9      	str	r1, [r3, #12]
    1172:	601c      	str	r4, [r3, #0]
    1174:	605d      	str	r5, [r3, #4]
    1176:	2308      	movs	r3, #8
    1178:	425b      	negs	r3, r3
    117a:	469c      	mov	ip, r3
    117c:	44e0      	add	r8, ip
    117e:	0026      	movs	r6, r4
    1180:	002f      	movs	r7, r5
    1182:	45c1      	cmp	r9, r8
    1184:	d1db      	bne.n	113e <__kernel_rem_pio2+0x70e>
    1186:	465d      	mov	r5, fp
    1188:	2700      	movs	r7, #0
    118a:	2400      	movs	r4, #0
    118c:	3508      	adds	r5, #8
    118e:	444d      	add	r5, r9
    1190:	ae50      	add	r6, sp, #320	; 0x140
    1192:	682a      	ldr	r2, [r5, #0]
    1194:	686b      	ldr	r3, [r5, #4]
    1196:	0038      	movs	r0, r7
    1198:	0021      	movs	r1, r4
    119a:	f000 fc05 	bl	19a8 <__aeabi_dadd>
    119e:	3d08      	subs	r5, #8
    11a0:	0007      	movs	r7, r0
    11a2:	000c      	movs	r4, r1
    11a4:	42ae      	cmp	r6, r5
    11a6:	d1f4      	bne.n	1192 <__kernel_rem_pio2+0x762>
    11a8:	9b07      	ldr	r3, [sp, #28]
    11aa:	2b00      	cmp	r3, #0
    11ac:	d071      	beq.n	1292 <__kernel_rem_pio2+0x862>
    11ae:	2180      	movs	r1, #128	; 0x80
    11b0:	9a09      	ldr	r2, [sp, #36]	; 0x24
    11b2:	9b4e      	ldr	r3, [sp, #312]	; 0x138
    11b4:	0609      	lsls	r1, r1, #24
    11b6:	6013      	str	r3, [r2, #0]
    11b8:	464b      	mov	r3, r9
    11ba:	468c      	mov	ip, r1
    11bc:	685b      	ldr	r3, [r3, #4]
    11be:	4464      	add	r4, ip
    11c0:	4463      	add	r3, ip
    11c2:	6053      	str	r3, [r2, #4]
    11c4:	464b      	mov	r3, r9
    11c6:	689b      	ldr	r3, [r3, #8]
    11c8:	6117      	str	r7, [r2, #16]
    11ca:	6093      	str	r3, [r2, #8]
    11cc:	464b      	mov	r3, r9
    11ce:	68db      	ldr	r3, [r3, #12]
    11d0:	6154      	str	r4, [r2, #20]
    11d2:	4463      	add	r3, ip
    11d4:	60d3      	str	r3, [r2, #12]
    11d6:	e70a      	b.n	fee <__kernel_rem_pio2+0x5be>
    11d8:	4699      	mov	r9, r3
    11da:	4643      	mov	r3, r8
    11dc:	930b      	str	r3, [sp, #44]	; 0x2c
    11de:	9b06      	ldr	r3, [sp, #24]
    11e0:	0030      	movs	r0, r6
    11e2:	425a      	negs	r2, r3
    11e4:	0039      	movs	r1, r7
    11e6:	f000 f9bb 	bl	1560 <scalbn>
    11ea:	2200      	movs	r2, #0
    11ec:	4b34      	ldr	r3, [pc, #208]	; (12c0 <__kernel_rem_pio2+0x890>)
    11ee:	0004      	movs	r4, r0
    11f0:	000d      	movs	r5, r1
    11f2:	f000 fbcf 	bl	1994 <__aeabi_dcmpge>
    11f6:	2800      	cmp	r0, #0
    11f8:	d032      	beq.n	1260 <__kernel_rem_pio2+0x830>
    11fa:	4b32      	ldr	r3, [pc, #200]	; (12c4 <__kernel_rem_pio2+0x894>)
    11fc:	2200      	movs	r2, #0
    11fe:	0020      	movs	r0, r4
    1200:	0029      	movs	r1, r5
    1202:	f001 fb21 	bl	2848 <__aeabi_dmul>
    1206:	f002 f8ed 	bl	33e4 <__aeabi_d2iz>
    120a:	464a      	mov	r2, r9
    120c:	0006      	movs	r6, r0
    120e:	0097      	lsls	r7, r2, #2
    1210:	f002 f91e 	bl	3450 <__aeabi_i2d>
    1214:	2200      	movs	r2, #0
    1216:	4b2a      	ldr	r3, [pc, #168]	; (12c0 <__kernel_rem_pio2+0x890>)
    1218:	f001 fb16 	bl	2848 <__aeabi_dmul>
    121c:	0002      	movs	r2, r0
    121e:	000b      	movs	r3, r1
    1220:	0020      	movs	r0, r4
    1222:	0029      	movs	r1, r5
    1224:	f001 fd8a 	bl	2d3c <__aeabi_dsub>
    1228:	f002 f8dc 	bl	33e4 <__aeabi_d2iz>
    122c:	aa12      	add	r2, sp, #72	; 0x48
    122e:	51d0      	str	r0, [r2, r7]
    1230:	464a      	mov	r2, r9
    1232:	9b06      	ldr	r3, [sp, #24]
    1234:	3201      	adds	r2, #1
    1236:	3318      	adds	r3, #24
    1238:	9200      	str	r2, [sp, #0]
    123a:	9306      	str	r3, [sp, #24]
    123c:	0093      	lsls	r3, r2, #2
    123e:	aa12      	add	r2, sp, #72	; 0x48
    1240:	50d6      	str	r6, [r2, r3]
    1242:	e644      	b.n	ece <__kernel_rem_pio2+0x49e>
    1244:	2201      	movs	r2, #1
    1246:	e57f      	b.n	d48 <__kernel_rem_pio2+0x318>
    1248:	2400      	movs	r4, #0
    124a:	e53a      	b.n	cc2 <__kernel_rem_pio2+0x292>
    124c:	9ba8      	ldr	r3, [sp, #672]	; 0x2a0
    124e:	2b02      	cmp	r3, #2
    1250:	dc14      	bgt.n	127c <__kernel_rem_pio2+0x84c>
    1252:	2b00      	cmp	r3, #0
    1254:	dc0f      	bgt.n	1276 <__kernel_rem_pio2+0x846>
    1256:	d000      	beq.n	125a <__kernel_rem_pio2+0x82a>
    1258:	e6c9      	b.n	fee <__kernel_rem_pio2+0x5be>
    125a:	2500      	movs	r5, #0
    125c:	2400      	movs	r4, #0
    125e:	e6ba      	b.n	fd6 <__kernel_rem_pio2+0x5a6>
    1260:	464b      	mov	r3, r9
    1262:	0020      	movs	r0, r4
    1264:	0029      	movs	r1, r5
    1266:	009e      	lsls	r6, r3, #2
    1268:	f002 f8bc 	bl	33e4 <__aeabi_d2iz>
    126c:	ab12      	add	r3, sp, #72	; 0x48
    126e:	5198      	str	r0, [r3, r6]
    1270:	464b      	mov	r3, r9
    1272:	9300      	str	r3, [sp, #0]
    1274:	e62b      	b.n	ece <__kernel_rem_pio2+0x49e>
    1276:	2000      	movs	r0, #0
    1278:	2100      	movs	r1, #0
    127a:	e6de      	b.n	103a <__kernel_rem_pio2+0x60a>
    127c:	ab4e      	add	r3, sp, #312	; 0x138
    127e:	4699      	mov	r9, r3
    1280:	9ba8      	ldr	r3, [sp, #672]	; 0x2a0
    1282:	2b03      	cmp	r3, #3
    1284:	d000      	beq.n	1288 <__kernel_rem_pio2+0x858>
    1286:	e6b2      	b.n	fee <__kernel_rem_pio2+0x5be>
    1288:	9b07      	ldr	r3, [sp, #28]
    128a:	2700      	movs	r7, #0
    128c:	2400      	movs	r4, #0
    128e:	2b00      	cmp	r3, #0
    1290:	d18d      	bne.n	11ae <__kernel_rem_pio2+0x77e>
    1292:	9a4e      	ldr	r2, [sp, #312]	; 0x138
    1294:	9b4f      	ldr	r3, [sp, #316]	; 0x13c
    1296:	9909      	ldr	r1, [sp, #36]	; 0x24
    1298:	600a      	str	r2, [r1, #0]
    129a:	604b      	str	r3, [r1, #4]
    129c:	464b      	mov	r3, r9
    129e:	689a      	ldr	r2, [r3, #8]
    12a0:	68db      	ldr	r3, [r3, #12]
    12a2:	9200      	str	r2, [sp, #0]
    12a4:	9301      	str	r3, [sp, #4]
    12a6:	608a      	str	r2, [r1, #8]
    12a8:	60cb      	str	r3, [r1, #12]
    12aa:	003a      	movs	r2, r7
    12ac:	0023      	movs	r3, r4
    12ae:	610a      	str	r2, [r1, #16]
    12b0:	614b      	str	r3, [r1, #20]
    12b2:	e69c      	b.n	fee <__kernel_rem_pio2+0x5be>
    12b4:	ab76      	add	r3, sp, #472	; 0x1d8
    12b6:	930a      	str	r3, [sp, #40]	; 0x28
    12b8:	e435      	b.n	b26 <__kernel_rem_pio2+0xf6>
    12ba:	46c0      	nop			; (mov r8, r8)
    12bc:	1fffffff 	.word	0x1fffffff
    12c0:	41700000 	.word	0x41700000
    12c4:	3e700000 	.word	0x3e700000

000012c8 <__kernel_sin>:
    12c8:	b5f0      	push	{r4, r5, r6, r7, lr}
    12ca:	464f      	mov	r7, r9
    12cc:	4646      	mov	r6, r8
    12ce:	b4c0      	push	{r6, r7}
    12d0:	b087      	sub	sp, #28
    12d2:	9200      	str	r2, [sp, #0]
    12d4:	9301      	str	r3, [sp, #4]
    12d6:	4a46      	ldr	r2, [pc, #280]	; (13f0 <__kernel_sin+0x128>)
    12d8:	004b      	lsls	r3, r1, #1
    12da:	4681      	mov	r9, r0
    12dc:	4688      	mov	r8, r1
    12de:	085b      	lsrs	r3, r3, #1
    12e0:	4293      	cmp	r3, r2
    12e2:	dc05      	bgt.n	12f0 <__kernel_sin+0x28>
    12e4:	f002 f87e 	bl	33e4 <__aeabi_d2iz>
    12e8:	4641      	mov	r1, r8
    12ea:	1e03      	subs	r3, r0, #0
    12ec:	4648      	mov	r0, r9
    12ee:	d066      	beq.n	13be <__kernel_sin+0xf6>
    12f0:	464a      	mov	r2, r9
    12f2:	4643      	mov	r3, r8
    12f4:	4648      	mov	r0, r9
    12f6:	4641      	mov	r1, r8
    12f8:	f001 faa6 	bl	2848 <__aeabi_dmul>
    12fc:	0004      	movs	r4, r0
    12fe:	000d      	movs	r5, r1
    1300:	0002      	movs	r2, r0
    1302:	000b      	movs	r3, r1
    1304:	4648      	mov	r0, r9
    1306:	4641      	mov	r1, r8
    1308:	f001 fa9e 	bl	2848 <__aeabi_dmul>
    130c:	4a39      	ldr	r2, [pc, #228]	; (13f4 <__kernel_sin+0x12c>)
    130e:	4b3a      	ldr	r3, [pc, #232]	; (13f8 <__kernel_sin+0x130>)
    1310:	0006      	movs	r6, r0
    1312:	000f      	movs	r7, r1
    1314:	0020      	movs	r0, r4
    1316:	0029      	movs	r1, r5
    1318:	f001 fa96 	bl	2848 <__aeabi_dmul>
    131c:	4a37      	ldr	r2, [pc, #220]	; (13fc <__kernel_sin+0x134>)
    131e:	4b38      	ldr	r3, [pc, #224]	; (1400 <__kernel_sin+0x138>)
    1320:	f001 fd0c 	bl	2d3c <__aeabi_dsub>
    1324:	0022      	movs	r2, r4
    1326:	002b      	movs	r3, r5
    1328:	f001 fa8e 	bl	2848 <__aeabi_dmul>
    132c:	4a35      	ldr	r2, [pc, #212]	; (1404 <__kernel_sin+0x13c>)
    132e:	4b36      	ldr	r3, [pc, #216]	; (1408 <__kernel_sin+0x140>)
    1330:	f000 fb3a 	bl	19a8 <__aeabi_dadd>
    1334:	0022      	movs	r2, r4
    1336:	002b      	movs	r3, r5
    1338:	f001 fa86 	bl	2848 <__aeabi_dmul>
    133c:	4a33      	ldr	r2, [pc, #204]	; (140c <__kernel_sin+0x144>)
    133e:	4b34      	ldr	r3, [pc, #208]	; (1410 <__kernel_sin+0x148>)
    1340:	f001 fcfc 	bl	2d3c <__aeabi_dsub>
    1344:	0022      	movs	r2, r4
    1346:	002b      	movs	r3, r5
    1348:	f001 fa7e 	bl	2848 <__aeabi_dmul>
    134c:	4b31      	ldr	r3, [pc, #196]	; (1414 <__kernel_sin+0x14c>)
    134e:	4a32      	ldr	r2, [pc, #200]	; (1418 <__kernel_sin+0x150>)
    1350:	f000 fb2a 	bl	19a8 <__aeabi_dadd>
    1354:	9b0e      	ldr	r3, [sp, #56]	; 0x38
    1356:	9002      	str	r0, [sp, #8]
    1358:	9103      	str	r1, [sp, #12]
    135a:	2b00      	cmp	r3, #0
    135c:	d034      	beq.n	13c8 <__kernel_sin+0x100>
    135e:	9800      	ldr	r0, [sp, #0]
    1360:	9901      	ldr	r1, [sp, #4]
    1362:	2200      	movs	r2, #0
    1364:	4b2d      	ldr	r3, [pc, #180]	; (141c <__kernel_sin+0x154>)
    1366:	f001 fa6f 	bl	2848 <__aeabi_dmul>
    136a:	9a02      	ldr	r2, [sp, #8]
    136c:	9b03      	ldr	r3, [sp, #12]
    136e:	9004      	str	r0, [sp, #16]
    1370:	9105      	str	r1, [sp, #20]
    1372:	0030      	movs	r0, r6
    1374:	0039      	movs	r1, r7
    1376:	f001 fa67 	bl	2848 <__aeabi_dmul>
    137a:	0002      	movs	r2, r0
    137c:	000b      	movs	r3, r1
    137e:	9804      	ldr	r0, [sp, #16]
    1380:	9905      	ldr	r1, [sp, #20]
    1382:	f001 fcdb 	bl	2d3c <__aeabi_dsub>
    1386:	0022      	movs	r2, r4
    1388:	002b      	movs	r3, r5
    138a:	f001 fa5d 	bl	2848 <__aeabi_dmul>
    138e:	9a00      	ldr	r2, [sp, #0]
    1390:	9b01      	ldr	r3, [sp, #4]
    1392:	f001 fcd3 	bl	2d3c <__aeabi_dsub>
    1396:	4a22      	ldr	r2, [pc, #136]	; (1420 <__kernel_sin+0x158>)
    1398:	0004      	movs	r4, r0
    139a:	000d      	movs	r5, r1
    139c:	4b21      	ldr	r3, [pc, #132]	; (1424 <__kernel_sin+0x15c>)
    139e:	0030      	movs	r0, r6
    13a0:	0039      	movs	r1, r7
    13a2:	f001 fa51 	bl	2848 <__aeabi_dmul>
    13a6:	0002      	movs	r2, r0
    13a8:	000b      	movs	r3, r1
    13aa:	0020      	movs	r0, r4
    13ac:	0029      	movs	r1, r5
    13ae:	f000 fafb 	bl	19a8 <__aeabi_dadd>
    13b2:	0002      	movs	r2, r0
    13b4:	000b      	movs	r3, r1
    13b6:	4648      	mov	r0, r9
    13b8:	4641      	mov	r1, r8
    13ba:	f001 fcbf 	bl	2d3c <__aeabi_dsub>
    13be:	b007      	add	sp, #28
    13c0:	bc0c      	pop	{r2, r3}
    13c2:	4690      	mov	r8, r2
    13c4:	4699      	mov	r9, r3
    13c6:	bdf0      	pop	{r4, r5, r6, r7, pc}
    13c8:	0002      	movs	r2, r0
    13ca:	000b      	movs	r3, r1
    13cc:	0020      	movs	r0, r4
    13ce:	0029      	movs	r1, r5
    13d0:	f001 fa3a 	bl	2848 <__aeabi_dmul>
    13d4:	4a12      	ldr	r2, [pc, #72]	; (1420 <__kernel_sin+0x158>)
    13d6:	4b13      	ldr	r3, [pc, #76]	; (1424 <__kernel_sin+0x15c>)
    13d8:	f001 fcb0 	bl	2d3c <__aeabi_dsub>
    13dc:	0032      	movs	r2, r6
    13de:	003b      	movs	r3, r7
    13e0:	f001 fa32 	bl	2848 <__aeabi_dmul>
    13e4:	464a      	mov	r2, r9
    13e6:	4643      	mov	r3, r8
    13e8:	f000 fade 	bl	19a8 <__aeabi_dadd>
    13ec:	e7e7      	b.n	13be <__kernel_sin+0xf6>
    13ee:	46c0      	nop			; (mov r8, r8)
    13f0:	3e3fffff 	.word	0x3e3fffff
    13f4:	5acfd57c 	.word	0x5acfd57c
    13f8:	3de5d93a 	.word	0x3de5d93a
    13fc:	8a2b9ceb 	.word	0x8a2b9ceb
    1400:	3e5ae5e6 	.word	0x3e5ae5e6
    1404:	57b1fe7d 	.word	0x57b1fe7d
    1408:	3ec71de3 	.word	0x3ec71de3
    140c:	19c161d5 	.word	0x19c161d5
    1410:	3f2a01a0 	.word	0x3f2a01a0
    1414:	3f811111 	.word	0x3f811111
    1418:	1110f8a6 	.word	0x1110f8a6
    141c:	3fe00000 	.word	0x3fe00000
    1420:	55555549 	.word	0x55555549
    1424:	3fc55555 	.word	0x3fc55555

00001428 <fabs>:
    1428:	0049      	lsls	r1, r1, #1
    142a:	084b      	lsrs	r3, r1, #1
    142c:	0019      	movs	r1, r3
    142e:	4770      	bx	lr

00001430 <floor>:
    1430:	4a45      	ldr	r2, [pc, #276]	; (1548 <floor+0x118>)
    1432:	b5f8      	push	{r3, r4, r5, r6, r7, lr}
    1434:	4656      	mov	r6, sl
    1436:	4692      	mov	sl, r2
    1438:	004b      	lsls	r3, r1, #1
    143a:	0d5b      	lsrs	r3, r3, #21
    143c:	449a      	add	sl, r3
    143e:	464d      	mov	r5, r9
    1440:	465f      	mov	r7, fp
    1442:	4644      	mov	r4, r8
    1444:	4652      	mov	r2, sl
    1446:	b4f0      	push	{r4, r5, r6, r7}
    1448:	4689      	mov	r9, r1
    144a:	0005      	movs	r5, r0
    144c:	000c      	movs	r4, r1
    144e:	000e      	movs	r6, r1
    1450:	0007      	movs	r7, r0
    1452:	2a13      	cmp	r2, #19
    1454:	dc22      	bgt.n	149c <floor+0x6c>
    1456:	2a00      	cmp	r2, #0
    1458:	db47      	blt.n	14ea <floor+0xba>
    145a:	4652      	mov	r2, sl
    145c:	4b3b      	ldr	r3, [pc, #236]	; (154c <floor+0x11c>)
    145e:	4113      	asrs	r3, r2
    1460:	4698      	mov	r8, r3
    1462:	000b      	movs	r3, r1
    1464:	4642      	mov	r2, r8
    1466:	4013      	ands	r3, r2
    1468:	4303      	orrs	r3, r0
    146a:	d011      	beq.n	1490 <floor+0x60>
    146c:	4a38      	ldr	r2, [pc, #224]	; (1550 <floor+0x120>)
    146e:	4b39      	ldr	r3, [pc, #228]	; (1554 <floor+0x124>)
    1470:	f000 fa9a 	bl	19a8 <__aeabi_dadd>
    1474:	2200      	movs	r2, #0
    1476:	2300      	movs	r3, #0
    1478:	f000 fa82 	bl	1980 <__aeabi_dcmpgt>
    147c:	2800      	cmp	r0, #0
    147e:	d005      	beq.n	148c <floor+0x5c>
    1480:	2c00      	cmp	r4, #0
    1482:	db41      	blt.n	1508 <floor+0xd8>
    1484:	464e      	mov	r6, r9
    1486:	4643      	mov	r3, r8
    1488:	2700      	movs	r7, #0
    148a:	439e      	bics	r6, r3
    148c:	0038      	movs	r0, r7
    148e:	0031      	movs	r1, r6
    1490:	bc3c      	pop	{r2, r3, r4, r5}
    1492:	4690      	mov	r8, r2
    1494:	4699      	mov	r9, r3
    1496:	46a2      	mov	sl, r4
    1498:	46ab      	mov	fp, r5
    149a:	bdf8      	pop	{r3, r4, r5, r6, r7, pc}
    149c:	4652      	mov	r2, sl
    149e:	2a33      	cmp	r2, #51	; 0x33
    14a0:	dd08      	ble.n	14b4 <floor+0x84>
    14a2:	2380      	movs	r3, #128	; 0x80
    14a4:	00db      	lsls	r3, r3, #3
    14a6:	459a      	cmp	sl, r3
    14a8:	d1f2      	bne.n	1490 <floor+0x60>
    14aa:	0002      	movs	r2, r0
    14ac:	000b      	movs	r3, r1
    14ae:	f000 fa7b 	bl	19a8 <__aeabi_dadd>
    14b2:	e7ed      	b.n	1490 <floor+0x60>
    14b4:	4a28      	ldr	r2, [pc, #160]	; (1558 <floor+0x128>)
    14b6:	4694      	mov	ip, r2
    14b8:	2201      	movs	r2, #1
    14ba:	4463      	add	r3, ip
    14bc:	4252      	negs	r2, r2
    14be:	40da      	lsrs	r2, r3
    14c0:	4693      	mov	fp, r2
    14c2:	4202      	tst	r2, r0
    14c4:	d0e4      	beq.n	1490 <floor+0x60>
    14c6:	4a22      	ldr	r2, [pc, #136]	; (1550 <floor+0x120>)
    14c8:	4b22      	ldr	r3, [pc, #136]	; (1554 <floor+0x124>)
    14ca:	f000 fa6d 	bl	19a8 <__aeabi_dadd>
    14ce:	2200      	movs	r2, #0
    14d0:	2300      	movs	r3, #0
    14d2:	f000 fa55 	bl	1980 <__aeabi_dcmpgt>
    14d6:	2800      	cmp	r0, #0
    14d8:	d0d8      	beq.n	148c <floor+0x5c>
    14da:	2c00      	cmp	r4, #0
    14dc:	db1a      	blt.n	1514 <floor+0xe4>
    14de:	465b      	mov	r3, fp
    14e0:	464e      	mov	r6, r9
    14e2:	439f      	bics	r7, r3
    14e4:	0038      	movs	r0, r7
    14e6:	0031      	movs	r1, r6
    14e8:	e7d2      	b.n	1490 <floor+0x60>
    14ea:	4a19      	ldr	r2, [pc, #100]	; (1550 <floor+0x120>)
    14ec:	4b19      	ldr	r3, [pc, #100]	; (1554 <floor+0x124>)
    14ee:	f000 fa5b 	bl	19a8 <__aeabi_dadd>
    14f2:	2200      	movs	r2, #0
    14f4:	2300      	movs	r3, #0
    14f6:	f000 fa43 	bl	1980 <__aeabi_dcmpgt>
    14fa:	2800      	cmp	r0, #0
    14fc:	d0c6      	beq.n	148c <floor+0x5c>
    14fe:	2c00      	cmp	r4, #0
    1500:	db16      	blt.n	1530 <floor+0x100>
    1502:	2700      	movs	r7, #0
    1504:	2600      	movs	r6, #0
    1506:	e7c1      	b.n	148c <floor+0x5c>
    1508:	2380      	movs	r3, #128	; 0x80
    150a:	4652      	mov	r2, sl
    150c:	035b      	lsls	r3, r3, #13
    150e:	4113      	asrs	r3, r2
    1510:	4499      	add	r9, r3
    1512:	e7b7      	b.n	1484 <floor+0x54>
    1514:	4653      	mov	r3, sl
    1516:	2b14      	cmp	r3, #20
    1518:	d012      	beq.n	1540 <floor+0x110>
    151a:	2334      	movs	r3, #52	; 0x34
    151c:	4652      	mov	r2, sl
    151e:	2701      	movs	r7, #1
    1520:	1a9b      	subs	r3, r3, r2
    1522:	409f      	lsls	r7, r3
    1524:	197f      	adds	r7, r7, r5
    1526:	42af      	cmp	r7, r5
    1528:	419b      	sbcs	r3, r3
    152a:	425b      	negs	r3, r3
    152c:	4499      	add	r9, r3
    152e:	e7d6      	b.n	14de <floor+0xae>
    1530:	0064      	lsls	r4, r4, #1
    1532:	0864      	lsrs	r4, r4, #1
    1534:	4325      	orrs	r5, r4
    1536:	2700      	movs	r7, #0
    1538:	2d00      	cmp	r5, #0
    153a:	d0a7      	beq.n	148c <floor+0x5c>
    153c:	4e07      	ldr	r6, [pc, #28]	; (155c <floor+0x12c>)
    153e:	e7a5      	b.n	148c <floor+0x5c>
    1540:	3b13      	subs	r3, #19
    1542:	469c      	mov	ip, r3
    1544:	44e1      	add	r9, ip
    1546:	e7ca      	b.n	14de <floor+0xae>
    1548:	fffffc01 	.word	0xfffffc01
    154c:	000fffff 	.word	0x000fffff
    1550:	8800759c 	.word	0x8800759c
    1554:	7e37e43c 	.word	0x7e37e43c
    1558:	fffffbed 	.word	0xfffffbed
    155c:	bff00000 	.word	0xbff00000

00001560 <scalbn>:
    1560:	004b      	lsls	r3, r1, #1
    1562:	b570      	push	{r4, r5, r6, lr}
    1564:	0d5b      	lsrs	r3, r3, #21
    1566:	0014      	movs	r4, r2
    1568:	000a      	movs	r2, r1
    156a:	2b00      	cmp	r3, #0
    156c:	d11a      	bne.n	15a4 <scalbn+0x44>
    156e:	004b      	lsls	r3, r1, #1
    1570:	085b      	lsrs	r3, r3, #1
    1572:	4303      	orrs	r3, r0
    1574:	d015      	beq.n	15a2 <scalbn+0x42>
    1576:	2200      	movs	r2, #0
    1578:	4b22      	ldr	r3, [pc, #136]	; (1604 <scalbn+0xa4>)
    157a:	f001 f965 	bl	2848 <__aeabi_dmul>
    157e:	4b22      	ldr	r3, [pc, #136]	; (1608 <scalbn+0xa8>)
    1580:	000a      	movs	r2, r1
    1582:	429c      	cmp	r4, r3
    1584:	db22      	blt.n	15cc <scalbn+0x6c>
    1586:	004b      	lsls	r3, r1, #1
    1588:	0d5b      	lsrs	r3, r3, #21
    158a:	3b36      	subs	r3, #54	; 0x36
    158c:	4d1f      	ldr	r5, [pc, #124]	; (160c <scalbn+0xac>)
    158e:	18e3      	adds	r3, r4, r3
    1590:	42ab      	cmp	r3, r5
    1592:	dc20      	bgt.n	15d6 <scalbn+0x76>
    1594:	2b00      	cmp	r3, #0
    1596:	dd0d      	ble.n	15b4 <scalbn+0x54>
    1598:	4c1d      	ldr	r4, [pc, #116]	; (1610 <scalbn+0xb0>)
    159a:	051b      	lsls	r3, r3, #20
    159c:	4022      	ands	r2, r4
    159e:	431a      	orrs	r2, r3
    15a0:	0011      	movs	r1, r2
    15a2:	bd70      	pop	{r4, r5, r6, pc}
    15a4:	4d1b      	ldr	r5, [pc, #108]	; (1614 <scalbn+0xb4>)
    15a6:	42ab      	cmp	r3, r5
    15a8:	d1f0      	bne.n	158c <scalbn+0x2c>
    15aa:	0002      	movs	r2, r0
    15ac:	000b      	movs	r3, r1
    15ae:	f000 f9fb 	bl	19a8 <__aeabi_dadd>
    15b2:	e7f6      	b.n	15a2 <scalbn+0x42>
    15b4:	001d      	movs	r5, r3
    15b6:	3535      	adds	r5, #53	; 0x35
    15b8:	da18      	bge.n	15ec <scalbn+0x8c>
    15ba:	4b17      	ldr	r3, [pc, #92]	; (1618 <scalbn+0xb8>)
    15bc:	0002      	movs	r2, r0
    15be:	429c      	cmp	r4, r3
    15c0:	dc0a      	bgt.n	15d8 <scalbn+0x78>
    15c2:	000b      	movs	r3, r1
    15c4:	4815      	ldr	r0, [pc, #84]	; (161c <scalbn+0xbc>)
    15c6:	4916      	ldr	r1, [pc, #88]	; (1620 <scalbn+0xc0>)
    15c8:	f000 f832 	bl	1630 <copysign>
    15cc:	4a13      	ldr	r2, [pc, #76]	; (161c <scalbn+0xbc>)
    15ce:	4b14      	ldr	r3, [pc, #80]	; (1620 <scalbn+0xc0>)
    15d0:	f001 f93a 	bl	2848 <__aeabi_dmul>
    15d4:	e7e5      	b.n	15a2 <scalbn+0x42>
    15d6:	0002      	movs	r2, r0
    15d8:	000b      	movs	r3, r1
    15da:	4812      	ldr	r0, [pc, #72]	; (1624 <scalbn+0xc4>)
    15dc:	4912      	ldr	r1, [pc, #72]	; (1628 <scalbn+0xc8>)
    15de:	f000 f827 	bl	1630 <copysign>
    15e2:	4a10      	ldr	r2, [pc, #64]	; (1624 <scalbn+0xc4>)
    15e4:	4b10      	ldr	r3, [pc, #64]	; (1628 <scalbn+0xc8>)
    15e6:	f001 f92f 	bl	2848 <__aeabi_dmul>
    15ea:	e7da      	b.n	15a2 <scalbn+0x42>
    15ec:	4c08      	ldr	r4, [pc, #32]	; (1610 <scalbn+0xb0>)
    15ee:	3336      	adds	r3, #54	; 0x36
    15f0:	4022      	ands	r2, r4
    15f2:	051b      	lsls	r3, r3, #20
    15f4:	4313      	orrs	r3, r2
    15f6:	0019      	movs	r1, r3
    15f8:	2200      	movs	r2, #0
    15fa:	4b0c      	ldr	r3, [pc, #48]	; (162c <scalbn+0xcc>)
    15fc:	f001 f924 	bl	2848 <__aeabi_dmul>
    1600:	e7cf      	b.n	15a2 <scalbn+0x42>
    1602:	46c0      	nop			; (mov r8, r8)
    1604:	43500000 	.word	0x43500000
    1608:	ffff3cb0 	.word	0xffff3cb0
    160c:	000007fe 	.word	0x000007fe
    1610:	800fffff 	.word	0x800fffff
    1614:	000007ff 	.word	0x000007ff
    1618:	0000c350 	.word	0x0000c350
    161c:	c2f8f359 	.word	0xc2f8f359
    1620:	01a56e1f 	.word	0x01a56e1f
    1624:	8800759c 	.word	0x8800759c
    1628:	7e37e43c 	.word	0x7e37e43c
    162c:	3c900000 	.word	0x3c900000

00001630 <copysign>:
    1630:	b530      	push	{r4, r5, lr}
    1632:	004a      	lsls	r2, r1, #1
    1634:	0fdb      	lsrs	r3, r3, #31
    1636:	07db      	lsls	r3, r3, #31
    1638:	0852      	lsrs	r2, r2, #1
    163a:	431a      	orrs	r2, r3
    163c:	0011      	movs	r1, r2
    163e:	bd30      	pop	{r4, r5, pc}

00001640 <__aeabi_uidiv>:
    1640:	2200      	movs	r2, #0
    1642:	0843      	lsrs	r3, r0, #1
    1644:	428b      	cmp	r3, r1
    1646:	d374      	bcc.n	1732 <__aeabi_uidiv+0xf2>
    1648:	0903      	lsrs	r3, r0, #4
    164a:	428b      	cmp	r3, r1
    164c:	d35f      	bcc.n	170e <__aeabi_uidiv+0xce>
    164e:	0a03      	lsrs	r3, r0, #8
    1650:	428b      	cmp	r3, r1
    1652:	d344      	bcc.n	16de <__aeabi_uidiv+0x9e>
    1654:	0b03      	lsrs	r3, r0, #12
    1656:	428b      	cmp	r3, r1
    1658:	d328      	bcc.n	16ac <__aeabi_uidiv+0x6c>
    165a:	0c03      	lsrs	r3, r0, #16
    165c:	428b      	cmp	r3, r1
    165e:	d30d      	bcc.n	167c <__aeabi_uidiv+0x3c>
    1660:	22ff      	movs	r2, #255	; 0xff
    1662:	0209      	lsls	r1, r1, #8
    1664:	ba12      	rev	r2, r2
    1666:	0c03      	lsrs	r3, r0, #16
    1668:	428b      	cmp	r3, r1
    166a:	d302      	bcc.n	1672 <__aeabi_uidiv+0x32>
    166c:	1212      	asrs	r2, r2, #8
    166e:	0209      	lsls	r1, r1, #8
    1670:	d065      	beq.n	173e <__aeabi_uidiv+0xfe>
    1672:	0b03      	lsrs	r3, r0, #12
    1674:	428b      	cmp	r3, r1
    1676:	d319      	bcc.n	16ac <__aeabi_uidiv+0x6c>
    1678:	e000      	b.n	167c <__aeabi_uidiv+0x3c>
    167a:	0a09      	lsrs	r1, r1, #8
    167c:	0bc3      	lsrs	r3, r0, #15
    167e:	428b      	cmp	r3, r1
    1680:	d301      	bcc.n	1686 <__aeabi_uidiv+0x46>
    1682:	03cb      	lsls	r3, r1, #15
    1684:	1ac0      	subs	r0, r0, r3
    1686:	4152      	adcs	r2, r2
    1688:	0b83      	lsrs	r3, r0, #14
    168a:	428b      	cmp	r3, r1
    168c:	d301      	bcc.n	1692 <__aeabi_uidiv+0x52>
    168e:	038b      	lsls	r3, r1, #14
    1690:	1ac0      	subs	r0, r0, r3
    1692:	4152      	adcs	r2, r2
    1694:	0b43      	lsrs	r3, r0, #13
    1696:	428b      	cmp	r3, r1
    1698:	d301      	bcc.n	169e <__aeabi_uidiv+0x5e>
    169a:	034b      	lsls	r3, r1, #13
    169c:	1ac0      	subs	r0, r0, r3
    169e:	4152      	adcs	r2, r2
    16a0:	0b03      	lsrs	r3, r0, #12
    16a2:	428b      	cmp	r3, r1
    16a4:	d301      	bcc.n	16aa <__aeabi_uidiv+0x6a>
    16a6:	030b      	lsls	r3, r1, #12
    16a8:	1ac0      	subs	r0, r0, r3
    16aa:	4152      	adcs	r2, r2
    16ac:	0ac3      	lsrs	r3, r0, #11
    16ae:	428b      	cmp	r3, r1
    16b0:	d301      	bcc.n	16b6 <__aeabi_uidiv+0x76>
    16b2:	02cb      	lsls	r3, r1, #11
    16b4:	1ac0      	subs	r0, r0, r3
    16b6:	4152      	adcs	r2, r2
    16b8:	0a83      	lsrs	r3, r0, #10
    16ba:	428b      	cmp	r3, r1
    16bc:	d301      	bcc.n	16c2 <__aeabi_uidiv+0x82>
    16be:	028b      	lsls	r3, r1, #10
    16c0:	1ac0      	subs	r0, r0, r3
    16c2:	4152      	adcs	r2, r2
    16c4:	0a43      	lsrs	r3, r0, #9
    16c6:	428b      	cmp	r3, r1
    16c8:	d301      	bcc.n	16ce <__aeabi_uidiv+0x8e>
    16ca:	024b      	lsls	r3, r1, #9
    16cc:	1ac0      	subs	r0, r0, r3
    16ce:	4152      	adcs	r2, r2
    16d0:	0a03      	lsrs	r3, r0, #8
    16d2:	428b      	cmp	r3, r1
    16d4:	d301      	bcc.n	16da <__aeabi_uidiv+0x9a>
    16d6:	020b      	lsls	r3, r1, #8
    16d8:	1ac0      	subs	r0, r0, r3
    16da:	4152      	adcs	r2, r2
    16dc:	d2cd      	bcs.n	167a <__aeabi_uidiv+0x3a>
    16de:	09c3      	lsrs	r3, r0, #7
    16e0:	428b      	cmp	r3, r1
    16e2:	d301      	bcc.n	16e8 <__aeabi_uidiv+0xa8>
    16e4:	01cb      	lsls	r3, r1, #7
    16e6:	1ac0      	subs	r0, r0, r3
    16e8:	4152      	adcs	r2, r2
    16ea:	0983      	lsrs	r3, r0, #6
    16ec:	428b      	cmp	r3, r1
    16ee:	d301      	bcc.n	16f4 <__aeabi_uidiv+0xb4>
    16f0:	018b      	lsls	r3, r1, #6
    16f2:	1ac0      	subs	r0, r0, r3
    16f4:	4152      	adcs	r2, r2
    16f6:	0943      	lsrs	r3, r0, #5
    16f8:	428b      	cmp	r3, r1
    16fa:	d301      	bcc.n	1700 <__aeabi_uidiv+0xc0>
    16fc:	014b      	lsls	r3, r1, #5
    16fe:	1ac0      	subs	r0, r0, r3
    1700:	4152      	adcs	r2, r2
    1702:	0903      	lsrs	r3, r0, #4
    1704:	428b      	cmp	r3, r1
    1706:	d301      	bcc.n	170c <__aeabi_uidiv+0xcc>
    1708:	010b      	lsls	r3, r1, #4
    170a:	1ac0      	subs	r0, r0, r3
    170c:	4152      	adcs	r2, r2
    170e:	08c3      	lsrs	r3, r0, #3
    1710:	428b      	cmp	r3, r1
    1712:	d301      	bcc.n	1718 <__aeabi_uidiv+0xd8>
    1714:	00cb      	lsls	r3, r1, #3
    1716:	1ac0      	subs	r0, r0, r3
    1718:	4152      	adcs	r2, r2
    171a:	0883      	lsrs	r3, r0, #2
    171c:	428b      	cmp	r3, r1
    171e:	d301      	bcc.n	1724 <__aeabi_uidiv+0xe4>
    1720:	008b      	lsls	r3, r1, #2
    1722:	1ac0      	subs	r0, r0, r3
    1724:	4152      	adcs	r2, r2
    1726:	0843      	lsrs	r3, r0, #1
    1728:	428b      	cmp	r3, r1
    172a:	d301      	bcc.n	1730 <__aeabi_uidiv+0xf0>
    172c:	004b      	lsls	r3, r1, #1
    172e:	1ac0      	subs	r0, r0, r3
    1730:	4152      	adcs	r2, r2
    1732:	1a41      	subs	r1, r0, r1
    1734:	d200      	bcs.n	1738 <__aeabi_uidiv+0xf8>
    1736:	4601      	mov	r1, r0
    1738:	4152      	adcs	r2, r2
    173a:	4610      	mov	r0, r2
    173c:	4770      	bx	lr
    173e:	e7ff      	b.n	1740 <__aeabi_uidiv+0x100>
    1740:	b501      	push	{r0, lr}
    1742:	2000      	movs	r0, #0
    1744:	f000 f8f0 	bl	1928 <__aeabi_idiv0>
    1748:	bd02      	pop	{r1, pc}
    174a:	46c0      	nop			; (mov r8, r8)

0000174c <__aeabi_uidivmod>:
    174c:	2900      	cmp	r1, #0
    174e:	d0f7      	beq.n	1740 <__aeabi_uidiv+0x100>
    1750:	e776      	b.n	1640 <__aeabi_uidiv>
    1752:	4770      	bx	lr

00001754 <__aeabi_idiv>:
    1754:	4603      	mov	r3, r0
    1756:	430b      	orrs	r3, r1
    1758:	d47f      	bmi.n	185a <__aeabi_idiv+0x106>
    175a:	2200      	movs	r2, #0
    175c:	0843      	lsrs	r3, r0, #1
    175e:	428b      	cmp	r3, r1
    1760:	d374      	bcc.n	184c <__aeabi_idiv+0xf8>
    1762:	0903      	lsrs	r3, r0, #4
    1764:	428b      	cmp	r3, r1
    1766:	d35f      	bcc.n	1828 <__aeabi_idiv+0xd4>
    1768:	0a03      	lsrs	r3, r0, #8
    176a:	428b      	cmp	r3, r1
    176c:	d344      	bcc.n	17f8 <__aeabi_idiv+0xa4>
    176e:	0b03      	lsrs	r3, r0, #12
    1770:	428b      	cmp	r3, r1
    1772:	d328      	bcc.n	17c6 <__aeabi_idiv+0x72>
    1774:	0c03      	lsrs	r3, r0, #16
    1776:	428b      	cmp	r3, r1
    1778:	d30d      	bcc.n	1796 <__aeabi_idiv+0x42>
    177a:	22ff      	movs	r2, #255	; 0xff
    177c:	0209      	lsls	r1, r1, #8
    177e:	ba12      	rev	r2, r2
    1780:	0c03      	lsrs	r3, r0, #16
    1782:	428b      	cmp	r3, r1
    1784:	d302      	bcc.n	178c <__aeabi_idiv+0x38>
    1786:	1212      	asrs	r2, r2, #8
    1788:	0209      	lsls	r1, r1, #8
    178a:	d065      	beq.n	1858 <__aeabi_idiv+0x104>
    178c:	0b03      	lsrs	r3, r0, #12
    178e:	428b      	cmp	r3, r1
    1790:	d319      	bcc.n	17c6 <__aeabi_idiv+0x72>
    1792:	e000      	b.n	1796 <__aeabi_idiv+0x42>
    1794:	0a09      	lsrs	r1, r1, #8
    1796:	0bc3      	lsrs	r3, r0, #15
    1798:	428b      	cmp	r3, r1
    179a:	d301      	bcc.n	17a0 <__aeabi_idiv+0x4c>
    179c:	03cb      	lsls	r3, r1, #15
    179e:	1ac0      	subs	r0, r0, r3
    17a0:	4152      	adcs	r2, r2
    17a2:	0b83      	lsrs	r3, r0, #14
    17a4:	428b      	cmp	r3, r1
    17a6:	d301      	bcc.n	17ac <__aeabi_idiv+0x58>
    17a8:	038b      	lsls	r3, r1, #14
    17aa:	1ac0      	subs	r0, r0, r3
    17ac:	4152      	adcs	r2, r2
    17ae:	0b43      	lsrs	r3, r0, #13
    17b0:	428b      	cmp	r3, r1
    17b2:	d301      	bcc.n	17b8 <__aeabi_idiv+0x64>
    17b4:	034b      	lsls	r3, r1, #13
    17b6:	1ac0      	subs	r0, r0, r3
    17b8:	4152      	adcs	r2, r2
    17ba:	0b03      	lsrs	r3, r0, #12
    17bc:	428b      	cmp	r3, r1
    17be:	d301      	bcc.n	17c4 <__aeabi_idiv+0x70>
    17c0:	030b      	lsls	r3, r1, #12
    17c2:	1ac0      	subs	r0, r0, r3
    17c4:	4152      	adcs	r2, r2
    17c6:	0ac3      	lsrs	r3, r0, #11
    17c8:	428b      	cmp	r3, r1
    17ca:	d301      	bcc.n	17d0 <__aeabi_idiv+0x7c>
    17cc:	02cb      	lsls	r3, r1, #11
    17ce:	1ac0      	subs	r0, r0, r3
    17d0:	4152      	adcs	r2, r2
    17d2:	0a83      	lsrs	r3, r0, #10
    17d4:	428b      	cmp	r3, r1
    17d6:	d301      	bcc.n	17dc <__aeabi_idiv+0x88>
    17d8:	028b      	lsls	r3, r1, #10
    17da:	1ac0      	subs	r0, r0, r3
    17dc:	4152      	adcs	r2, r2
    17de:	0a43      	lsrs	r3, r0, #9
    17e0:	428b      	cmp	r3, r1
    17e2:	d301      	bcc.n	17e8 <__aeabi_idiv+0x94>
    17e4:	024b      	lsls	r3, r1, #9
    17e6:	1ac0      	subs	r0, r0, r3
    17e8:	4152      	adcs	r2, r2
    17ea:	0a03      	lsrs	r3, r0, #8
    17ec:	428b      	cmp	r3, r1
    17ee:	d301      	bcc.n	17f4 <__aeabi_idiv+0xa0>
    17f0:	020b      	lsls	r3, r1, #8
    17f2:	1ac0      	subs	r0, r0, r3
    17f4:	4152      	adcs	r2, r2
    17f6:	d2cd      	bcs.n	1794 <__aeabi_idiv+0x40>
    17f8:	09c3      	lsrs	r3, r0, #7
    17fa:	428b      	cmp	r3, r1
    17fc:	d301      	bcc.n	1802 <__aeabi_idiv+0xae>
    17fe:	01cb      	lsls	r3, r1, #7
    1800:	1ac0      	subs	r0, r0, r3
    1802:	4152      	adcs	r2, r2
    1804:	0983      	lsrs	r3, r0, #6
    1806:	428b      	cmp	r3, r1
    1808:	d301      	bcc.n	180e <__aeabi_idiv+0xba>
    180a:	018b      	lsls	r3, r1, #6
    180c:	1ac0      	subs	r0, r0, r3
    180e:	4152      	adcs	r2, r2
    1810:	0943      	lsrs	r3, r0, #5
    1812:	428b      	cmp	r3, r1
    1814:	d301      	bcc.n	181a <__aeabi_idiv+0xc6>
    1816:	014b      	lsls	r3, r1, #5
    1818:	1ac0      	subs	r0, r0, r3
    181a:	4152      	adcs	r2, r2
    181c:	0903      	lsrs	r3, r0, #4
    181e:	428b      	cmp	r3, r1
    1820:	d301      	bcc.n	1826 <__aeabi_idiv+0xd2>
    1822:	010b      	lsls	r3, r1, #4
    1824:	1ac0      	subs	r0, r0, r3
    1826:	4152      	adcs	r2, r2
    1828:	08c3      	lsrs	r3, r0, #3
    182a:	428b      	cmp	r3, r1
    182c:	d301      	bcc.n	1832 <__aeabi_idiv+0xde>
    182e:	00cb      	lsls	r3, r1, #3
    1830:	1ac0      	subs	r0, r0, r3
    1832:	4152      	adcs	r2, r2
    1834:	0883      	lsrs	r3, r0, #2
    1836:	428b      	cmp	r3, r1
    1838:	d301      	bcc.n	183e <__aeabi_idiv+0xea>
    183a:	008b      	lsls	r3, r1, #2
    183c:	1ac0      	subs	r0, r0, r3
    183e:	4152      	adcs	r2, r2
    1840:	0843      	lsrs	r3, r0, #1
    1842:	428b      	cmp	r3, r1
    1844:	d301      	bcc.n	184a <__aeabi_idiv+0xf6>
    1846:	004b      	lsls	r3, r1, #1
    1848:	1ac0      	subs	r0, r0, r3
    184a:	4152      	adcs	r2, r2
    184c:	1a41      	subs	r1, r0, r1
    184e:	d200      	bcs.n	1852 <__aeabi_idiv+0xfe>
    1850:	4601      	mov	r1, r0
    1852:	4152      	adcs	r2, r2
    1854:	4610      	mov	r0, r2
    1856:	4770      	bx	lr
    1858:	e05d      	b.n	1916 <__aeabi_idiv+0x1c2>
    185a:	0fca      	lsrs	r2, r1, #31
    185c:	d000      	beq.n	1860 <__aeabi_idiv+0x10c>
    185e:	4249      	negs	r1, r1
    1860:	1003      	asrs	r3, r0, #32
    1862:	d300      	bcc.n	1866 <__aeabi_idiv+0x112>
    1864:	4240      	negs	r0, r0
    1866:	4053      	eors	r3, r2
    1868:	2200      	movs	r2, #0
    186a:	469c      	mov	ip, r3
    186c:	0903      	lsrs	r3, r0, #4
    186e:	428b      	cmp	r3, r1
    1870:	d32d      	bcc.n	18ce <__aeabi_idiv+0x17a>
    1872:	0a03      	lsrs	r3, r0, #8
    1874:	428b      	cmp	r3, r1
    1876:	d312      	bcc.n	189e <__aeabi_idiv+0x14a>
    1878:	22fc      	movs	r2, #252	; 0xfc
    187a:	0189      	lsls	r1, r1, #6
    187c:	ba12      	rev	r2, r2
    187e:	0a03      	lsrs	r3, r0, #8
    1880:	428b      	cmp	r3, r1
    1882:	d30c      	bcc.n	189e <__aeabi_idiv+0x14a>
    1884:	0189      	lsls	r1, r1, #6
    1886:	1192      	asrs	r2, r2, #6
    1888:	428b      	cmp	r3, r1
    188a:	d308      	bcc.n	189e <__aeabi_idiv+0x14a>
    188c:	0189      	lsls	r1, r1, #6
    188e:	1192      	asrs	r2, r2, #6
    1890:	428b      	cmp	r3, r1
    1892:	d304      	bcc.n	189e <__aeabi_idiv+0x14a>
    1894:	0189      	lsls	r1, r1, #6
    1896:	d03a      	beq.n	190e <__aeabi_idiv+0x1ba>
    1898:	1192      	asrs	r2, r2, #6
    189a:	e000      	b.n	189e <__aeabi_idiv+0x14a>
    189c:	0989      	lsrs	r1, r1, #6
    189e:	09c3      	lsrs	r3, r0, #7
    18a0:	428b      	cmp	r3, r1
    18a2:	d301      	bcc.n	18a8 <__aeabi_idiv+0x154>
    18a4:	01cb      	lsls	r3, r1, #7
    18a6:	1ac0      	subs	r0, r0, r3
    18a8:	4152      	adcs	r2, r2
    18aa:	0983      	lsrs	r3, r0, #6
    18ac:	428b      	cmp	r3, r1
    18ae:	d301      	bcc.n	18b4 <__aeabi_idiv+0x160>
    18b0:	018b      	lsls	r3, r1, #6
    18b2:	1ac0      	subs	r0, r0, r3
    18b4:	4152      	adcs	r2, r2
    18b6:	0943      	lsrs	r3, r0, #5
    18b8:	428b      	cmp	r3, r1
    18ba:	d301      	bcc.n	18c0 <__aeabi_idiv+0x16c>
    18bc:	014b      	lsls	r3, r1, #5
    18be:	1ac0      	subs	r0, r0, r3
    18c0:	4152      	adcs	r2, r2
    18c2:	0903      	lsrs	r3, r0, #4
    18c4:	428b      	cmp	r3, r1
    18c6:	d301      	bcc.n	18cc <__aeabi_idiv+0x178>
    18c8:	010b      	lsls	r3, r1, #4
    18ca:	1ac0      	subs	r0, r0, r3
    18cc:	4152      	adcs	r2, r2
    18ce:	08c3      	lsrs	r3, r0, #3
    18d0:	428b      	cmp	r3, r1
    18d2:	d301      	bcc.n	18d8 <__aeabi_idiv+0x184>
    18d4:	00cb      	lsls	r3, r1, #3
    18d6:	1ac0      	subs	r0, r0, r3
    18d8:	4152      	adcs	r2, r2
    18da:	0883      	lsrs	r3, r0, #2
    18dc:	428b      	cmp	r3, r1
    18de:	d301      	bcc.n	18e4 <__aeabi_idiv+0x190>
    18e0:	008b      	lsls	r3, r1, #2
    18e2:	1ac0      	subs	r0, r0, r3
    18e4:	4152      	adcs	r2, r2
    18e6:	d2d9      	bcs.n	189c <__aeabi_idiv+0x148>
    18e8:	0843      	lsrs	r3, r0, #1
    18ea:	428b      	cmp	r3, r1
    18ec:	d301      	bcc.n	18f2 <__aeabi_idiv+0x19e>
    18ee:	004b      	lsls	r3, r1, #1
    18f0:	1ac0      	subs	r0, r0, r3
    18f2:	4152      	adcs	r2, r2
    18f4:	1a41      	subs	r1, r0, r1
    18f6:	d200      	bcs.n	18fa <__aeabi_idiv+0x1a6>
    18f8:	4601      	mov	r1, r0
    18fa:	4663      	mov	r3, ip
    18fc:	4152      	adcs	r2, r2
    18fe:	105b      	asrs	r3, r3, #1
    1900:	4610      	mov	r0, r2
    1902:	d301      	bcc.n	1908 <__aeabi_idiv+0x1b4>
    1904:	4240      	negs	r0, r0
    1906:	2b00      	cmp	r3, #0
    1908:	d500      	bpl.n	190c <__aeabi_idiv+0x1b8>
    190a:	4249      	negs	r1, r1
    190c:	4770      	bx	lr
    190e:	4663      	mov	r3, ip
    1910:	105b      	asrs	r3, r3, #1
    1912:	d300      	bcc.n	1916 <__aeabi_idiv+0x1c2>
    1914:	4240      	negs	r0, r0
    1916:	b501      	push	{r0, lr}
    1918:	2000      	movs	r0, #0
    191a:	f000 f805 	bl	1928 <__aeabi_idiv0>
    191e:	bd02      	pop	{r1, pc}

00001920 <__aeabi_idivmod>:
    1920:	2900      	cmp	r1, #0
    1922:	d0f8      	beq.n	1916 <__aeabi_idiv+0x1c2>
    1924:	e716      	b.n	1754 <__aeabi_idiv>
    1926:	4770      	bx	lr

00001928 <__aeabi_idiv0>:
    1928:	4770      	bx	lr
    192a:	46c0      	nop			; (mov r8, r8)

0000192c <__aeabi_cdrcmple>:
    192c:	4684      	mov	ip, r0
    192e:	1c10      	adds	r0, r2, #0
    1930:	4662      	mov	r2, ip
    1932:	468c      	mov	ip, r1
    1934:	1c19      	adds	r1, r3, #0
    1936:	4663      	mov	r3, ip
    1938:	e000      	b.n	193c <__aeabi_cdcmpeq>
    193a:	46c0      	nop			; (mov r8, r8)

0000193c <__aeabi_cdcmpeq>:
    193c:	b51f      	push	{r0, r1, r2, r3, r4, lr}
    193e:	f000 ff19 	bl	2774 <__ledf2>
    1942:	2800      	cmp	r0, #0
    1944:	d401      	bmi.n	194a <__aeabi_cdcmpeq+0xe>
    1946:	2100      	movs	r1, #0
    1948:	42c8      	cmn	r0, r1
    194a:	bd1f      	pop	{r0, r1, r2, r3, r4, pc}

0000194c <__aeabi_dcmpeq>:
    194c:	b510      	push	{r4, lr}
    194e:	f000 fe6d 	bl	262c <__eqdf2>
    1952:	4240      	negs	r0, r0
    1954:	3001      	adds	r0, #1
    1956:	bd10      	pop	{r4, pc}

00001958 <__aeabi_dcmplt>:
    1958:	b510      	push	{r4, lr}
    195a:	f000 ff0b 	bl	2774 <__ledf2>
    195e:	2800      	cmp	r0, #0
    1960:	db01      	blt.n	1966 <__aeabi_dcmplt+0xe>
    1962:	2000      	movs	r0, #0
    1964:	bd10      	pop	{r4, pc}
    1966:	2001      	movs	r0, #1
    1968:	bd10      	pop	{r4, pc}
    196a:	46c0      	nop			; (mov r8, r8)

0000196c <__aeabi_dcmple>:
    196c:	b510      	push	{r4, lr}
    196e:	f000 ff01 	bl	2774 <__ledf2>
    1972:	2800      	cmp	r0, #0
    1974:	dd01      	ble.n	197a <__aeabi_dcmple+0xe>
    1976:	2000      	movs	r0, #0
    1978:	bd10      	pop	{r4, pc}
    197a:	2001      	movs	r0, #1
    197c:	bd10      	pop	{r4, pc}
    197e:	46c0      	nop			; (mov r8, r8)

00001980 <__aeabi_dcmpgt>:
    1980:	b510      	push	{r4, lr}
    1982:	f000 fe93 	bl	26ac <__gedf2>
    1986:	2800      	cmp	r0, #0
    1988:	dc01      	bgt.n	198e <__aeabi_dcmpgt+0xe>
    198a:	2000      	movs	r0, #0
    198c:	bd10      	pop	{r4, pc}
    198e:	2001      	movs	r0, #1
    1990:	bd10      	pop	{r4, pc}
    1992:	46c0      	nop			; (mov r8, r8)

00001994 <__aeabi_dcmpge>:
    1994:	b510      	push	{r4, lr}
    1996:	f000 fe89 	bl	26ac <__gedf2>
    199a:	2800      	cmp	r0, #0
    199c:	da01      	bge.n	19a2 <__aeabi_dcmpge+0xe>
    199e:	2000      	movs	r0, #0
    19a0:	bd10      	pop	{r4, pc}
    19a2:	2001      	movs	r0, #1
    19a4:	bd10      	pop	{r4, pc}
    19a6:	46c0      	nop			; (mov r8, r8)

000019a8 <__aeabi_dadd>:
    19a8:	b5f8      	push	{r3, r4, r5, r6, r7, lr}
    19aa:	4656      	mov	r6, sl
    19ac:	465f      	mov	r7, fp
    19ae:	464d      	mov	r5, r9
    19b0:	4644      	mov	r4, r8
    19b2:	b4f0      	push	{r4, r5, r6, r7}
    19b4:	000f      	movs	r7, r1
    19b6:	0ffd      	lsrs	r5, r7, #31
    19b8:	46aa      	mov	sl, r5
    19ba:	0309      	lsls	r1, r1, #12
    19bc:	007c      	lsls	r4, r7, #1
    19be:	002e      	movs	r6, r5
    19c0:	005f      	lsls	r7, r3, #1
    19c2:	0f45      	lsrs	r5, r0, #29
    19c4:	0a49      	lsrs	r1, r1, #9
    19c6:	0d7f      	lsrs	r7, r7, #21
    19c8:	4329      	orrs	r1, r5
    19ca:	00c5      	lsls	r5, r0, #3
    19cc:	0318      	lsls	r0, r3, #12
    19ce:	46bc      	mov	ip, r7
    19d0:	0a40      	lsrs	r0, r0, #9
    19d2:	0f57      	lsrs	r7, r2, #29
    19d4:	0d64      	lsrs	r4, r4, #21
    19d6:	0fdb      	lsrs	r3, r3, #31
    19d8:	4338      	orrs	r0, r7
    19da:	00d2      	lsls	r2, r2, #3
    19dc:	459a      	cmp	sl, r3
    19de:	d100      	bne.n	19e2 <__aeabi_dadd+0x3a>
    19e0:	e0aa      	b.n	1b38 <__aeabi_dadd+0x190>
    19e2:	4666      	mov	r6, ip
    19e4:	1ba6      	subs	r6, r4, r6
    19e6:	2e00      	cmp	r6, #0
    19e8:	dc00      	bgt.n	19ec <__aeabi_dadd+0x44>
    19ea:	e0ff      	b.n	1bec <__aeabi_dadd+0x244>
    19ec:	4663      	mov	r3, ip
    19ee:	2b00      	cmp	r3, #0
    19f0:	d139      	bne.n	1a66 <__aeabi_dadd+0xbe>
    19f2:	0003      	movs	r3, r0
    19f4:	4313      	orrs	r3, r2
    19f6:	d000      	beq.n	19fa <__aeabi_dadd+0x52>
    19f8:	e0d9      	b.n	1bae <__aeabi_dadd+0x206>
    19fa:	076b      	lsls	r3, r5, #29
    19fc:	d009      	beq.n	1a12 <__aeabi_dadd+0x6a>
    19fe:	230f      	movs	r3, #15
    1a00:	402b      	ands	r3, r5
    1a02:	2b04      	cmp	r3, #4
    1a04:	d005      	beq.n	1a12 <__aeabi_dadd+0x6a>
    1a06:	1d2b      	adds	r3, r5, #4
    1a08:	42ab      	cmp	r3, r5
    1a0a:	41ad      	sbcs	r5, r5
    1a0c:	426d      	negs	r5, r5
    1a0e:	1949      	adds	r1, r1, r5
    1a10:	001d      	movs	r5, r3
    1a12:	020b      	lsls	r3, r1, #8
    1a14:	d400      	bmi.n	1a18 <__aeabi_dadd+0x70>
    1a16:	e082      	b.n	1b1e <__aeabi_dadd+0x176>
    1a18:	4bca      	ldr	r3, [pc, #808]	; (1d44 <__aeabi_dadd+0x39c>)
    1a1a:	3401      	adds	r4, #1
    1a1c:	429c      	cmp	r4, r3
    1a1e:	d100      	bne.n	1a22 <__aeabi_dadd+0x7a>
    1a20:	e0fe      	b.n	1c20 <__aeabi_dadd+0x278>
    1a22:	000a      	movs	r2, r1
    1a24:	4656      	mov	r6, sl
    1a26:	4bc8      	ldr	r3, [pc, #800]	; (1d48 <__aeabi_dadd+0x3a0>)
    1a28:	08ed      	lsrs	r5, r5, #3
    1a2a:	401a      	ands	r2, r3
    1a2c:	0750      	lsls	r0, r2, #29
    1a2e:	0564      	lsls	r4, r4, #21
    1a30:	0252      	lsls	r2, r2, #9
    1a32:	4305      	orrs	r5, r0
    1a34:	0b12      	lsrs	r2, r2, #12
    1a36:	0d64      	lsrs	r4, r4, #21
    1a38:	2100      	movs	r1, #0
    1a3a:	0312      	lsls	r2, r2, #12
    1a3c:	0d0b      	lsrs	r3, r1, #20
    1a3e:	051b      	lsls	r3, r3, #20
    1a40:	0564      	lsls	r4, r4, #21
    1a42:	0b12      	lsrs	r2, r2, #12
    1a44:	431a      	orrs	r2, r3
    1a46:	0863      	lsrs	r3, r4, #1
    1a48:	4cc0      	ldr	r4, [pc, #768]	; (1d4c <__aeabi_dadd+0x3a4>)
    1a4a:	07f6      	lsls	r6, r6, #31
    1a4c:	4014      	ands	r4, r2
    1a4e:	431c      	orrs	r4, r3
    1a50:	0064      	lsls	r4, r4, #1
    1a52:	0864      	lsrs	r4, r4, #1
    1a54:	4334      	orrs	r4, r6
    1a56:	0028      	movs	r0, r5
    1a58:	0021      	movs	r1, r4
    1a5a:	bc3c      	pop	{r2, r3, r4, r5}
    1a5c:	4690      	mov	r8, r2
    1a5e:	4699      	mov	r9, r3
    1a60:	46a2      	mov	sl, r4
    1a62:	46ab      	mov	fp, r5
    1a64:	bdf8      	pop	{r3, r4, r5, r6, r7, pc}
    1a66:	4bb7      	ldr	r3, [pc, #732]	; (1d44 <__aeabi_dadd+0x39c>)
    1a68:	429c      	cmp	r4, r3
    1a6a:	d0c6      	beq.n	19fa <__aeabi_dadd+0x52>
    1a6c:	2380      	movs	r3, #128	; 0x80
    1a6e:	041b      	lsls	r3, r3, #16
    1a70:	4318      	orrs	r0, r3
    1a72:	2e38      	cmp	r6, #56	; 0x38
    1a74:	dd00      	ble.n	1a78 <__aeabi_dadd+0xd0>
    1a76:	e0eb      	b.n	1c50 <__aeabi_dadd+0x2a8>
    1a78:	2e1f      	cmp	r6, #31
    1a7a:	dd00      	ble.n	1a7e <__aeabi_dadd+0xd6>
    1a7c:	e11e      	b.n	1cbc <__aeabi_dadd+0x314>
    1a7e:	2320      	movs	r3, #32
    1a80:	1b9b      	subs	r3, r3, r6
    1a82:	469c      	mov	ip, r3
    1a84:	0003      	movs	r3, r0
    1a86:	4667      	mov	r7, ip
    1a88:	40bb      	lsls	r3, r7
    1a8a:	4698      	mov	r8, r3
    1a8c:	0013      	movs	r3, r2
    1a8e:	4647      	mov	r7, r8
    1a90:	40f3      	lsrs	r3, r6
    1a92:	433b      	orrs	r3, r7
    1a94:	4667      	mov	r7, ip
    1a96:	40ba      	lsls	r2, r7
    1a98:	1e57      	subs	r7, r2, #1
    1a9a:	41ba      	sbcs	r2, r7
    1a9c:	4313      	orrs	r3, r2
    1a9e:	0002      	movs	r2, r0
    1aa0:	40f2      	lsrs	r2, r6
    1aa2:	1aeb      	subs	r3, r5, r3
    1aa4:	429d      	cmp	r5, r3
    1aa6:	41b6      	sbcs	r6, r6
    1aa8:	001d      	movs	r5, r3
    1aaa:	1a8a      	subs	r2, r1, r2
    1aac:	4276      	negs	r6, r6
    1aae:	1b91      	subs	r1, r2, r6
    1ab0:	020b      	lsls	r3, r1, #8
    1ab2:	d531      	bpl.n	1b18 <__aeabi_dadd+0x170>
    1ab4:	024a      	lsls	r2, r1, #9
    1ab6:	0a56      	lsrs	r6, r2, #9
    1ab8:	2e00      	cmp	r6, #0
    1aba:	d100      	bne.n	1abe <__aeabi_dadd+0x116>
    1abc:	e0b4      	b.n	1c28 <__aeabi_dadd+0x280>
    1abe:	0030      	movs	r0, r6
    1ac0:	f001 fd08 	bl	34d4 <__clzsi2>
    1ac4:	0003      	movs	r3, r0
    1ac6:	3b08      	subs	r3, #8
    1ac8:	2b1f      	cmp	r3, #31
    1aca:	dd00      	ble.n	1ace <__aeabi_dadd+0x126>
    1acc:	e0b5      	b.n	1c3a <__aeabi_dadd+0x292>
    1ace:	2220      	movs	r2, #32
    1ad0:	0029      	movs	r1, r5
    1ad2:	1ad2      	subs	r2, r2, r3
    1ad4:	40d1      	lsrs	r1, r2
    1ad6:	409e      	lsls	r6, r3
    1ad8:	000a      	movs	r2, r1
    1ada:	409d      	lsls	r5, r3
    1adc:	4332      	orrs	r2, r6
    1ade:	429c      	cmp	r4, r3
    1ae0:	dd00      	ble.n	1ae4 <__aeabi_dadd+0x13c>
    1ae2:	e0b1      	b.n	1c48 <__aeabi_dadd+0x2a0>
    1ae4:	1b1c      	subs	r4, r3, r4
    1ae6:	1c63      	adds	r3, r4, #1
    1ae8:	2b1f      	cmp	r3, #31
    1aea:	dd00      	ble.n	1aee <__aeabi_dadd+0x146>
    1aec:	e0d5      	b.n	1c9a <__aeabi_dadd+0x2f2>
    1aee:	2120      	movs	r1, #32
    1af0:	0014      	movs	r4, r2
    1af2:	0028      	movs	r0, r5
    1af4:	1ac9      	subs	r1, r1, r3
    1af6:	408c      	lsls	r4, r1
    1af8:	40d8      	lsrs	r0, r3
    1afa:	408d      	lsls	r5, r1
    1afc:	4304      	orrs	r4, r0
    1afe:	40da      	lsrs	r2, r3
    1b00:	1e68      	subs	r0, r5, #1
    1b02:	4185      	sbcs	r5, r0
    1b04:	0011      	movs	r1, r2
    1b06:	4325      	orrs	r5, r4
    1b08:	2400      	movs	r4, #0
    1b0a:	e776      	b.n	19fa <__aeabi_dadd+0x52>
    1b0c:	4641      	mov	r1, r8
    1b0e:	4331      	orrs	r1, r6
    1b10:	d100      	bne.n	1b14 <__aeabi_dadd+0x16c>
    1b12:	e234      	b.n	1f7e <__aeabi_dadd+0x5d6>
    1b14:	0031      	movs	r1, r6
    1b16:	4645      	mov	r5, r8
    1b18:	076b      	lsls	r3, r5, #29
    1b1a:	d000      	beq.n	1b1e <__aeabi_dadd+0x176>
    1b1c:	e76f      	b.n	19fe <__aeabi_dadd+0x56>
    1b1e:	4656      	mov	r6, sl
    1b20:	0748      	lsls	r0, r1, #29
    1b22:	08ed      	lsrs	r5, r5, #3
    1b24:	08c9      	lsrs	r1, r1, #3
    1b26:	4305      	orrs	r5, r0
    1b28:	4b86      	ldr	r3, [pc, #536]	; (1d44 <__aeabi_dadd+0x39c>)
    1b2a:	429c      	cmp	r4, r3
    1b2c:	d035      	beq.n	1b9a <__aeabi_dadd+0x1f2>
    1b2e:	030a      	lsls	r2, r1, #12
    1b30:	0564      	lsls	r4, r4, #21
    1b32:	0b12      	lsrs	r2, r2, #12
    1b34:	0d64      	lsrs	r4, r4, #21
    1b36:	e77f      	b.n	1a38 <__aeabi_dadd+0x90>
    1b38:	4663      	mov	r3, ip
    1b3a:	1ae3      	subs	r3, r4, r3
    1b3c:	469b      	mov	fp, r3
    1b3e:	2b00      	cmp	r3, #0
    1b40:	dc00      	bgt.n	1b44 <__aeabi_dadd+0x19c>
    1b42:	e08b      	b.n	1c5c <__aeabi_dadd+0x2b4>
    1b44:	4667      	mov	r7, ip
    1b46:	2f00      	cmp	r7, #0
    1b48:	d03c      	beq.n	1bc4 <__aeabi_dadd+0x21c>
    1b4a:	4f7e      	ldr	r7, [pc, #504]	; (1d44 <__aeabi_dadd+0x39c>)
    1b4c:	42bc      	cmp	r4, r7
    1b4e:	d100      	bne.n	1b52 <__aeabi_dadd+0x1aa>
    1b50:	e753      	b.n	19fa <__aeabi_dadd+0x52>
    1b52:	2780      	movs	r7, #128	; 0x80
    1b54:	043f      	lsls	r7, r7, #16
    1b56:	4338      	orrs	r0, r7
    1b58:	465b      	mov	r3, fp
    1b5a:	2b38      	cmp	r3, #56	; 0x38
    1b5c:	dc00      	bgt.n	1b60 <__aeabi_dadd+0x1b8>
    1b5e:	e0f7      	b.n	1d50 <__aeabi_dadd+0x3a8>
    1b60:	4302      	orrs	r2, r0
    1b62:	1e50      	subs	r0, r2, #1
    1b64:	4182      	sbcs	r2, r0
    1b66:	2000      	movs	r0, #0
    1b68:	b2d2      	uxtb	r2, r2
    1b6a:	1953      	adds	r3, r2, r5
    1b6c:	1842      	adds	r2, r0, r1
    1b6e:	42ab      	cmp	r3, r5
    1b70:	4189      	sbcs	r1, r1
    1b72:	001d      	movs	r5, r3
    1b74:	4249      	negs	r1, r1
    1b76:	1889      	adds	r1, r1, r2
    1b78:	020b      	lsls	r3, r1, #8
    1b7a:	d5cd      	bpl.n	1b18 <__aeabi_dadd+0x170>
    1b7c:	4b71      	ldr	r3, [pc, #452]	; (1d44 <__aeabi_dadd+0x39c>)
    1b7e:	3401      	adds	r4, #1
    1b80:	429c      	cmp	r4, r3
    1b82:	d100      	bne.n	1b86 <__aeabi_dadd+0x1de>
    1b84:	e13d      	b.n	1e02 <__aeabi_dadd+0x45a>
    1b86:	2001      	movs	r0, #1
    1b88:	4a6f      	ldr	r2, [pc, #444]	; (1d48 <__aeabi_dadd+0x3a0>)
    1b8a:	086b      	lsrs	r3, r5, #1
    1b8c:	400a      	ands	r2, r1
    1b8e:	4028      	ands	r0, r5
    1b90:	4318      	orrs	r0, r3
    1b92:	07d5      	lsls	r5, r2, #31
    1b94:	4305      	orrs	r5, r0
    1b96:	0851      	lsrs	r1, r2, #1
    1b98:	e72f      	b.n	19fa <__aeabi_dadd+0x52>
    1b9a:	002b      	movs	r3, r5
    1b9c:	430b      	orrs	r3, r1
    1b9e:	d100      	bne.n	1ba2 <__aeabi_dadd+0x1fa>
    1ba0:	e1cb      	b.n	1f3a <__aeabi_dadd+0x592>
    1ba2:	2380      	movs	r3, #128	; 0x80
    1ba4:	031b      	lsls	r3, r3, #12
    1ba6:	430b      	orrs	r3, r1
    1ba8:	031a      	lsls	r2, r3, #12
    1baa:	0b12      	lsrs	r2, r2, #12
    1bac:	e744      	b.n	1a38 <__aeabi_dadd+0x90>
    1bae:	3e01      	subs	r6, #1
    1bb0:	2e00      	cmp	r6, #0
    1bb2:	d16d      	bne.n	1c90 <__aeabi_dadd+0x2e8>
    1bb4:	1aae      	subs	r6, r5, r2
    1bb6:	42b5      	cmp	r5, r6
    1bb8:	419b      	sbcs	r3, r3
    1bba:	1a09      	subs	r1, r1, r0
    1bbc:	425b      	negs	r3, r3
    1bbe:	1ac9      	subs	r1, r1, r3
    1bc0:	0035      	movs	r5, r6
    1bc2:	e775      	b.n	1ab0 <__aeabi_dadd+0x108>
    1bc4:	0007      	movs	r7, r0
    1bc6:	4317      	orrs	r7, r2
    1bc8:	d100      	bne.n	1bcc <__aeabi_dadd+0x224>
    1bca:	e716      	b.n	19fa <__aeabi_dadd+0x52>
    1bcc:	2301      	movs	r3, #1
    1bce:	425b      	negs	r3, r3
    1bd0:	469c      	mov	ip, r3
    1bd2:	44e3      	add	fp, ip
    1bd4:	465b      	mov	r3, fp
    1bd6:	2b00      	cmp	r3, #0
    1bd8:	d000      	beq.n	1bdc <__aeabi_dadd+0x234>
    1bda:	e0e0      	b.n	1d9e <__aeabi_dadd+0x3f6>
    1bdc:	18aa      	adds	r2, r5, r2
    1bde:	42aa      	cmp	r2, r5
    1be0:	419b      	sbcs	r3, r3
    1be2:	1809      	adds	r1, r1, r0
    1be4:	425b      	negs	r3, r3
    1be6:	1859      	adds	r1, r3, r1
    1be8:	0015      	movs	r5, r2
    1bea:	e7c5      	b.n	1b78 <__aeabi_dadd+0x1d0>
    1bec:	2e00      	cmp	r6, #0
    1bee:	d175      	bne.n	1cdc <__aeabi_dadd+0x334>
    1bf0:	1c66      	adds	r6, r4, #1
    1bf2:	0576      	lsls	r6, r6, #21
    1bf4:	0d76      	lsrs	r6, r6, #21
    1bf6:	2e01      	cmp	r6, #1
    1bf8:	dc00      	bgt.n	1bfc <__aeabi_dadd+0x254>
    1bfa:	e0f3      	b.n	1de4 <__aeabi_dadd+0x43c>
    1bfc:	1aae      	subs	r6, r5, r2
    1bfe:	46b0      	mov	r8, r6
    1c00:	4545      	cmp	r5, r8
    1c02:	41bf      	sbcs	r7, r7
    1c04:	1a0e      	subs	r6, r1, r0
    1c06:	427f      	negs	r7, r7
    1c08:	1bf6      	subs	r6, r6, r7
    1c0a:	0237      	lsls	r7, r6, #8
    1c0c:	d400      	bmi.n	1c10 <__aeabi_dadd+0x268>
    1c0e:	e08f      	b.n	1d30 <__aeabi_dadd+0x388>
    1c10:	1b55      	subs	r5, r2, r5
    1c12:	42aa      	cmp	r2, r5
    1c14:	41b6      	sbcs	r6, r6
    1c16:	1a41      	subs	r1, r0, r1
    1c18:	4276      	negs	r6, r6
    1c1a:	1b8e      	subs	r6, r1, r6
    1c1c:	469a      	mov	sl, r3
    1c1e:	e74b      	b.n	1ab8 <__aeabi_dadd+0x110>
    1c20:	4656      	mov	r6, sl
    1c22:	2200      	movs	r2, #0
    1c24:	2500      	movs	r5, #0
    1c26:	e707      	b.n	1a38 <__aeabi_dadd+0x90>
    1c28:	0028      	movs	r0, r5
    1c2a:	f001 fc53 	bl	34d4 <__clzsi2>
    1c2e:	3020      	adds	r0, #32
    1c30:	0003      	movs	r3, r0
    1c32:	3b08      	subs	r3, #8
    1c34:	2b1f      	cmp	r3, #31
    1c36:	dc00      	bgt.n	1c3a <__aeabi_dadd+0x292>
    1c38:	e749      	b.n	1ace <__aeabi_dadd+0x126>
    1c3a:	002a      	movs	r2, r5
    1c3c:	3828      	subs	r0, #40	; 0x28
    1c3e:	4082      	lsls	r2, r0
    1c40:	2500      	movs	r5, #0
    1c42:	429c      	cmp	r4, r3
    1c44:	dc00      	bgt.n	1c48 <__aeabi_dadd+0x2a0>
    1c46:	e74d      	b.n	1ae4 <__aeabi_dadd+0x13c>
    1c48:	493f      	ldr	r1, [pc, #252]	; (1d48 <__aeabi_dadd+0x3a0>)
    1c4a:	1ae4      	subs	r4, r4, r3
    1c4c:	4011      	ands	r1, r2
    1c4e:	e6d4      	b.n	19fa <__aeabi_dadd+0x52>
    1c50:	4302      	orrs	r2, r0
    1c52:	1e50      	subs	r0, r2, #1
    1c54:	4182      	sbcs	r2, r0
    1c56:	b2d3      	uxtb	r3, r2
    1c58:	2200      	movs	r2, #0
    1c5a:	e722      	b.n	1aa2 <__aeabi_dadd+0xfa>
    1c5c:	2b00      	cmp	r3, #0
    1c5e:	d000      	beq.n	1c62 <__aeabi_dadd+0x2ba>
    1c60:	e0f3      	b.n	1e4a <__aeabi_dadd+0x4a2>
    1c62:	1c63      	adds	r3, r4, #1
    1c64:	469c      	mov	ip, r3
    1c66:	055b      	lsls	r3, r3, #21
    1c68:	0d5b      	lsrs	r3, r3, #21
    1c6a:	2b01      	cmp	r3, #1
    1c6c:	dc00      	bgt.n	1c70 <__aeabi_dadd+0x2c8>
    1c6e:	e09f      	b.n	1db0 <__aeabi_dadd+0x408>
    1c70:	4b34      	ldr	r3, [pc, #208]	; (1d44 <__aeabi_dadd+0x39c>)
    1c72:	459c      	cmp	ip, r3
    1c74:	d100      	bne.n	1c78 <__aeabi_dadd+0x2d0>
    1c76:	e0c3      	b.n	1e00 <__aeabi_dadd+0x458>
    1c78:	18aa      	adds	r2, r5, r2
    1c7a:	1809      	adds	r1, r1, r0
    1c7c:	42aa      	cmp	r2, r5
    1c7e:	4180      	sbcs	r0, r0
    1c80:	4240      	negs	r0, r0
    1c82:	1841      	adds	r1, r0, r1
    1c84:	07cd      	lsls	r5, r1, #31
    1c86:	0852      	lsrs	r2, r2, #1
    1c88:	4315      	orrs	r5, r2
    1c8a:	0849      	lsrs	r1, r1, #1
    1c8c:	4664      	mov	r4, ip
    1c8e:	e6b4      	b.n	19fa <__aeabi_dadd+0x52>
    1c90:	4b2c      	ldr	r3, [pc, #176]	; (1d44 <__aeabi_dadd+0x39c>)
    1c92:	429c      	cmp	r4, r3
    1c94:	d000      	beq.n	1c98 <__aeabi_dadd+0x2f0>
    1c96:	e6ec      	b.n	1a72 <__aeabi_dadd+0xca>
    1c98:	e6af      	b.n	19fa <__aeabi_dadd+0x52>
    1c9a:	0011      	movs	r1, r2
    1c9c:	3c1f      	subs	r4, #31
    1c9e:	40e1      	lsrs	r1, r4
    1ca0:	000c      	movs	r4, r1
    1ca2:	2b20      	cmp	r3, #32
    1ca4:	d100      	bne.n	1ca8 <__aeabi_dadd+0x300>
    1ca6:	e07f      	b.n	1da8 <__aeabi_dadd+0x400>
    1ca8:	2140      	movs	r1, #64	; 0x40
    1caa:	1acb      	subs	r3, r1, r3
    1cac:	409a      	lsls	r2, r3
    1cae:	4315      	orrs	r5, r2
    1cb0:	1e6a      	subs	r2, r5, #1
    1cb2:	4195      	sbcs	r5, r2
    1cb4:	2100      	movs	r1, #0
    1cb6:	4325      	orrs	r5, r4
    1cb8:	2400      	movs	r4, #0
    1cba:	e72d      	b.n	1b18 <__aeabi_dadd+0x170>
    1cbc:	0033      	movs	r3, r6
    1cbe:	0007      	movs	r7, r0
    1cc0:	3b20      	subs	r3, #32
    1cc2:	40df      	lsrs	r7, r3
    1cc4:	003b      	movs	r3, r7
    1cc6:	2e20      	cmp	r6, #32
    1cc8:	d070      	beq.n	1dac <__aeabi_dadd+0x404>
    1cca:	2740      	movs	r7, #64	; 0x40
    1ccc:	1bbe      	subs	r6, r7, r6
    1cce:	40b0      	lsls	r0, r6
    1cd0:	4302      	orrs	r2, r0
    1cd2:	1e50      	subs	r0, r2, #1
    1cd4:	4182      	sbcs	r2, r0
    1cd6:	4313      	orrs	r3, r2
    1cd8:	2200      	movs	r2, #0
    1cda:	e6e2      	b.n	1aa2 <__aeabi_dadd+0xfa>
    1cdc:	2c00      	cmp	r4, #0
    1cde:	d04f      	beq.n	1d80 <__aeabi_dadd+0x3d8>
    1ce0:	4c18      	ldr	r4, [pc, #96]	; (1d44 <__aeabi_dadd+0x39c>)
    1ce2:	45a4      	cmp	ip, r4
    1ce4:	d100      	bne.n	1ce8 <__aeabi_dadd+0x340>
    1ce6:	e0ab      	b.n	1e40 <__aeabi_dadd+0x498>
    1ce8:	2480      	movs	r4, #128	; 0x80
    1cea:	0424      	lsls	r4, r4, #16
    1cec:	4276      	negs	r6, r6
    1cee:	4321      	orrs	r1, r4
    1cf0:	2e38      	cmp	r6, #56	; 0x38
    1cf2:	dd00      	ble.n	1cf6 <__aeabi_dadd+0x34e>
    1cf4:	e0df      	b.n	1eb6 <__aeabi_dadd+0x50e>
    1cf6:	2e1f      	cmp	r6, #31
    1cf8:	dd00      	ble.n	1cfc <__aeabi_dadd+0x354>
    1cfa:	e143      	b.n	1f84 <__aeabi_dadd+0x5dc>
    1cfc:	2720      	movs	r7, #32
    1cfe:	1bbc      	subs	r4, r7, r6
    1d00:	46a1      	mov	r9, r4
    1d02:	000c      	movs	r4, r1
    1d04:	464f      	mov	r7, r9
    1d06:	40bc      	lsls	r4, r7
    1d08:	46a0      	mov	r8, r4
    1d0a:	002c      	movs	r4, r5
    1d0c:	4647      	mov	r7, r8
    1d0e:	40f4      	lsrs	r4, r6
    1d10:	433c      	orrs	r4, r7
    1d12:	464f      	mov	r7, r9
    1d14:	40bd      	lsls	r5, r7
    1d16:	1e6f      	subs	r7, r5, #1
    1d18:	41bd      	sbcs	r5, r7
    1d1a:	40f1      	lsrs	r1, r6
    1d1c:	432c      	orrs	r4, r5
    1d1e:	1b15      	subs	r5, r2, r4
    1d20:	42aa      	cmp	r2, r5
    1d22:	4192      	sbcs	r2, r2
    1d24:	1a41      	subs	r1, r0, r1
    1d26:	4252      	negs	r2, r2
    1d28:	1a89      	subs	r1, r1, r2
    1d2a:	4664      	mov	r4, ip
    1d2c:	469a      	mov	sl, r3
    1d2e:	e6bf      	b.n	1ab0 <__aeabi_dadd+0x108>
    1d30:	4641      	mov	r1, r8
    1d32:	4645      	mov	r5, r8
    1d34:	4331      	orrs	r1, r6
    1d36:	d000      	beq.n	1d3a <__aeabi_dadd+0x392>
    1d38:	e6be      	b.n	1ab8 <__aeabi_dadd+0x110>
    1d3a:	2600      	movs	r6, #0
    1d3c:	2400      	movs	r4, #0
    1d3e:	2500      	movs	r5, #0
    1d40:	e6f2      	b.n	1b28 <__aeabi_dadd+0x180>
    1d42:	46c0      	nop			; (mov r8, r8)
    1d44:	000007ff 	.word	0x000007ff
    1d48:	ff7fffff 	.word	0xff7fffff
    1d4c:	800fffff 	.word	0x800fffff
    1d50:	2b1f      	cmp	r3, #31
    1d52:	dc59      	bgt.n	1e08 <__aeabi_dadd+0x460>
    1d54:	2720      	movs	r7, #32
    1d56:	1aff      	subs	r7, r7, r3
    1d58:	46bc      	mov	ip, r7
    1d5a:	0007      	movs	r7, r0
    1d5c:	4663      	mov	r3, ip
    1d5e:	409f      	lsls	r7, r3
    1d60:	465b      	mov	r3, fp
    1d62:	46b9      	mov	r9, r7
    1d64:	0017      	movs	r7, r2
    1d66:	40df      	lsrs	r7, r3
    1d68:	46b8      	mov	r8, r7
    1d6a:	464f      	mov	r7, r9
    1d6c:	4643      	mov	r3, r8
    1d6e:	431f      	orrs	r7, r3
    1d70:	4663      	mov	r3, ip
    1d72:	409a      	lsls	r2, r3
    1d74:	1e53      	subs	r3, r2, #1
    1d76:	419a      	sbcs	r2, r3
    1d78:	465b      	mov	r3, fp
    1d7a:	433a      	orrs	r2, r7
    1d7c:	40d8      	lsrs	r0, r3
    1d7e:	e6f4      	b.n	1b6a <__aeabi_dadd+0x1c2>
    1d80:	000c      	movs	r4, r1
    1d82:	432c      	orrs	r4, r5
    1d84:	d05c      	beq.n	1e40 <__aeabi_dadd+0x498>
    1d86:	43f6      	mvns	r6, r6
    1d88:	2e00      	cmp	r6, #0
    1d8a:	d155      	bne.n	1e38 <__aeabi_dadd+0x490>
    1d8c:	1b55      	subs	r5, r2, r5
    1d8e:	42aa      	cmp	r2, r5
    1d90:	41a4      	sbcs	r4, r4
    1d92:	1a41      	subs	r1, r0, r1
    1d94:	4264      	negs	r4, r4
    1d96:	1b09      	subs	r1, r1, r4
    1d98:	469a      	mov	sl, r3
    1d9a:	4664      	mov	r4, ip
    1d9c:	e688      	b.n	1ab0 <__aeabi_dadd+0x108>
    1d9e:	4f96      	ldr	r7, [pc, #600]	; (1ff8 <__aeabi_dadd+0x650>)
    1da0:	42bc      	cmp	r4, r7
    1da2:	d000      	beq.n	1da6 <__aeabi_dadd+0x3fe>
    1da4:	e6d8      	b.n	1b58 <__aeabi_dadd+0x1b0>
    1da6:	e628      	b.n	19fa <__aeabi_dadd+0x52>
    1da8:	2200      	movs	r2, #0
    1daa:	e780      	b.n	1cae <__aeabi_dadd+0x306>
    1dac:	2000      	movs	r0, #0
    1dae:	e78f      	b.n	1cd0 <__aeabi_dadd+0x328>
    1db0:	000b      	movs	r3, r1
    1db2:	432b      	orrs	r3, r5
    1db4:	2c00      	cmp	r4, #0
    1db6:	d000      	beq.n	1dba <__aeabi_dadd+0x412>
    1db8:	e0c2      	b.n	1f40 <__aeabi_dadd+0x598>
    1dba:	2b00      	cmp	r3, #0
    1dbc:	d100      	bne.n	1dc0 <__aeabi_dadd+0x418>
    1dbe:	e101      	b.n	1fc4 <__aeabi_dadd+0x61c>
    1dc0:	0003      	movs	r3, r0
    1dc2:	4313      	orrs	r3, r2
    1dc4:	d100      	bne.n	1dc8 <__aeabi_dadd+0x420>
    1dc6:	e618      	b.n	19fa <__aeabi_dadd+0x52>
    1dc8:	18ab      	adds	r3, r5, r2
    1dca:	42ab      	cmp	r3, r5
    1dcc:	41b6      	sbcs	r6, r6
    1dce:	1809      	adds	r1, r1, r0
    1dd0:	4276      	negs	r6, r6
    1dd2:	1871      	adds	r1, r6, r1
    1dd4:	020a      	lsls	r2, r1, #8
    1dd6:	d400      	bmi.n	1dda <__aeabi_dadd+0x432>
    1dd8:	e109      	b.n	1fee <__aeabi_dadd+0x646>
    1dda:	4a88      	ldr	r2, [pc, #544]	; (1ffc <__aeabi_dadd+0x654>)
    1ddc:	001d      	movs	r5, r3
    1dde:	4011      	ands	r1, r2
    1de0:	4664      	mov	r4, ip
    1de2:	e60a      	b.n	19fa <__aeabi_dadd+0x52>
    1de4:	2c00      	cmp	r4, #0
    1de6:	d15b      	bne.n	1ea0 <__aeabi_dadd+0x4f8>
    1de8:	000e      	movs	r6, r1
    1dea:	432e      	orrs	r6, r5
    1dec:	d000      	beq.n	1df0 <__aeabi_dadd+0x448>
    1dee:	e08a      	b.n	1f06 <__aeabi_dadd+0x55e>
    1df0:	0001      	movs	r1, r0
    1df2:	4311      	orrs	r1, r2
    1df4:	d100      	bne.n	1df8 <__aeabi_dadd+0x450>
    1df6:	e0c2      	b.n	1f7e <__aeabi_dadd+0x5d6>
    1df8:	0001      	movs	r1, r0
    1dfa:	0015      	movs	r5, r2
    1dfc:	469a      	mov	sl, r3
    1dfe:	e5fc      	b.n	19fa <__aeabi_dadd+0x52>
    1e00:	4664      	mov	r4, ip
    1e02:	2100      	movs	r1, #0
    1e04:	2500      	movs	r5, #0
    1e06:	e68f      	b.n	1b28 <__aeabi_dadd+0x180>
    1e08:	2320      	movs	r3, #32
    1e0a:	425b      	negs	r3, r3
    1e0c:	469c      	mov	ip, r3
    1e0e:	44dc      	add	ip, fp
    1e10:	4663      	mov	r3, ip
    1e12:	0007      	movs	r7, r0
    1e14:	40df      	lsrs	r7, r3
    1e16:	465b      	mov	r3, fp
    1e18:	46bc      	mov	ip, r7
    1e1a:	2b20      	cmp	r3, #32
    1e1c:	d100      	bne.n	1e20 <__aeabi_dadd+0x478>
    1e1e:	e0ac      	b.n	1f7a <__aeabi_dadd+0x5d2>
    1e20:	2340      	movs	r3, #64	; 0x40
    1e22:	465f      	mov	r7, fp
    1e24:	1bdb      	subs	r3, r3, r7
    1e26:	4098      	lsls	r0, r3
    1e28:	4302      	orrs	r2, r0
    1e2a:	1e50      	subs	r0, r2, #1
    1e2c:	4182      	sbcs	r2, r0
    1e2e:	4663      	mov	r3, ip
    1e30:	4313      	orrs	r3, r2
    1e32:	001a      	movs	r2, r3
    1e34:	2000      	movs	r0, #0
    1e36:	e698      	b.n	1b6a <__aeabi_dadd+0x1c2>
    1e38:	4c6f      	ldr	r4, [pc, #444]	; (1ff8 <__aeabi_dadd+0x650>)
    1e3a:	45a4      	cmp	ip, r4
    1e3c:	d000      	beq.n	1e40 <__aeabi_dadd+0x498>
    1e3e:	e757      	b.n	1cf0 <__aeabi_dadd+0x348>
    1e40:	0001      	movs	r1, r0
    1e42:	0015      	movs	r5, r2
    1e44:	4664      	mov	r4, ip
    1e46:	469a      	mov	sl, r3
    1e48:	e5d7      	b.n	19fa <__aeabi_dadd+0x52>
    1e4a:	2c00      	cmp	r4, #0
    1e4c:	d139      	bne.n	1ec2 <__aeabi_dadd+0x51a>
    1e4e:	000c      	movs	r4, r1
    1e50:	432c      	orrs	r4, r5
    1e52:	d06e      	beq.n	1f32 <__aeabi_dadd+0x58a>
    1e54:	43db      	mvns	r3, r3
    1e56:	2b00      	cmp	r3, #0
    1e58:	d01a      	beq.n	1e90 <__aeabi_dadd+0x4e8>
    1e5a:	4c67      	ldr	r4, [pc, #412]	; (1ff8 <__aeabi_dadd+0x650>)
    1e5c:	45a4      	cmp	ip, r4
    1e5e:	d068      	beq.n	1f32 <__aeabi_dadd+0x58a>
    1e60:	2b38      	cmp	r3, #56	; 0x38
    1e62:	dd00      	ble.n	1e66 <__aeabi_dadd+0x4be>
    1e64:	e0a4      	b.n	1fb0 <__aeabi_dadd+0x608>
    1e66:	2b1f      	cmp	r3, #31
    1e68:	dd00      	ble.n	1e6c <__aeabi_dadd+0x4c4>
    1e6a:	e0ae      	b.n	1fca <__aeabi_dadd+0x622>
    1e6c:	2420      	movs	r4, #32
    1e6e:	000f      	movs	r7, r1
    1e70:	1ae4      	subs	r4, r4, r3
    1e72:	40a7      	lsls	r7, r4
    1e74:	46b9      	mov	r9, r7
    1e76:	002f      	movs	r7, r5
    1e78:	40df      	lsrs	r7, r3
    1e7a:	46b8      	mov	r8, r7
    1e7c:	46a3      	mov	fp, r4
    1e7e:	464f      	mov	r7, r9
    1e80:	4644      	mov	r4, r8
    1e82:	4327      	orrs	r7, r4
    1e84:	465c      	mov	r4, fp
    1e86:	40a5      	lsls	r5, r4
    1e88:	1e6c      	subs	r4, r5, #1
    1e8a:	41a5      	sbcs	r5, r4
    1e8c:	40d9      	lsrs	r1, r3
    1e8e:	433d      	orrs	r5, r7
    1e90:	18ad      	adds	r5, r5, r2
    1e92:	4295      	cmp	r5, r2
    1e94:	419b      	sbcs	r3, r3
    1e96:	1809      	adds	r1, r1, r0
    1e98:	425b      	negs	r3, r3
    1e9a:	1859      	adds	r1, r3, r1
    1e9c:	4664      	mov	r4, ip
    1e9e:	e66b      	b.n	1b78 <__aeabi_dadd+0x1d0>
    1ea0:	000c      	movs	r4, r1
    1ea2:	432c      	orrs	r4, r5
    1ea4:	d115      	bne.n	1ed2 <__aeabi_dadd+0x52a>
    1ea6:	0001      	movs	r1, r0
    1ea8:	4311      	orrs	r1, r2
    1eaa:	d07b      	beq.n	1fa4 <__aeabi_dadd+0x5fc>
    1eac:	0001      	movs	r1, r0
    1eae:	0015      	movs	r5, r2
    1eb0:	469a      	mov	sl, r3
    1eb2:	4c51      	ldr	r4, [pc, #324]	; (1ff8 <__aeabi_dadd+0x650>)
    1eb4:	e5a1      	b.n	19fa <__aeabi_dadd+0x52>
    1eb6:	430d      	orrs	r5, r1
    1eb8:	1e69      	subs	r1, r5, #1
    1eba:	418d      	sbcs	r5, r1
    1ebc:	2100      	movs	r1, #0
    1ebe:	b2ec      	uxtb	r4, r5
    1ec0:	e72d      	b.n	1d1e <__aeabi_dadd+0x376>
    1ec2:	4c4d      	ldr	r4, [pc, #308]	; (1ff8 <__aeabi_dadd+0x650>)
    1ec4:	45a4      	cmp	ip, r4
    1ec6:	d034      	beq.n	1f32 <__aeabi_dadd+0x58a>
    1ec8:	2480      	movs	r4, #128	; 0x80
    1eca:	0424      	lsls	r4, r4, #16
    1ecc:	425b      	negs	r3, r3
    1ece:	4321      	orrs	r1, r4
    1ed0:	e7c6      	b.n	1e60 <__aeabi_dadd+0x4b8>
    1ed2:	0004      	movs	r4, r0
    1ed4:	4314      	orrs	r4, r2
    1ed6:	d04e      	beq.n	1f76 <__aeabi_dadd+0x5ce>
    1ed8:	08ed      	lsrs	r5, r5, #3
    1eda:	074c      	lsls	r4, r1, #29
    1edc:	432c      	orrs	r4, r5
    1ede:	2580      	movs	r5, #128	; 0x80
    1ee0:	08c9      	lsrs	r1, r1, #3
    1ee2:	032d      	lsls	r5, r5, #12
    1ee4:	4229      	tst	r1, r5
    1ee6:	d008      	beq.n	1efa <__aeabi_dadd+0x552>
    1ee8:	08c6      	lsrs	r6, r0, #3
    1eea:	422e      	tst	r6, r5
    1eec:	d105      	bne.n	1efa <__aeabi_dadd+0x552>
    1eee:	08d2      	lsrs	r2, r2, #3
    1ef0:	0741      	lsls	r1, r0, #29
    1ef2:	4311      	orrs	r1, r2
    1ef4:	000c      	movs	r4, r1
    1ef6:	469a      	mov	sl, r3
    1ef8:	0031      	movs	r1, r6
    1efa:	0f62      	lsrs	r2, r4, #29
    1efc:	00c9      	lsls	r1, r1, #3
    1efe:	00e5      	lsls	r5, r4, #3
    1f00:	4311      	orrs	r1, r2
    1f02:	4c3d      	ldr	r4, [pc, #244]	; (1ff8 <__aeabi_dadd+0x650>)
    1f04:	e579      	b.n	19fa <__aeabi_dadd+0x52>
    1f06:	0006      	movs	r6, r0
    1f08:	4316      	orrs	r6, r2
    1f0a:	d100      	bne.n	1f0e <__aeabi_dadd+0x566>
    1f0c:	e575      	b.n	19fa <__aeabi_dadd+0x52>
    1f0e:	1aae      	subs	r6, r5, r2
    1f10:	46b0      	mov	r8, r6
    1f12:	4545      	cmp	r5, r8
    1f14:	41bf      	sbcs	r7, r7
    1f16:	1a0e      	subs	r6, r1, r0
    1f18:	427f      	negs	r7, r7
    1f1a:	1bf6      	subs	r6, r6, r7
    1f1c:	0237      	lsls	r7, r6, #8
    1f1e:	d400      	bmi.n	1f22 <__aeabi_dadd+0x57a>
    1f20:	e5f4      	b.n	1b0c <__aeabi_dadd+0x164>
    1f22:	1b55      	subs	r5, r2, r5
    1f24:	42aa      	cmp	r2, r5
    1f26:	41b6      	sbcs	r6, r6
    1f28:	1a41      	subs	r1, r0, r1
    1f2a:	4276      	negs	r6, r6
    1f2c:	1b89      	subs	r1, r1, r6
    1f2e:	469a      	mov	sl, r3
    1f30:	e563      	b.n	19fa <__aeabi_dadd+0x52>
    1f32:	0001      	movs	r1, r0
    1f34:	0015      	movs	r5, r2
    1f36:	4664      	mov	r4, ip
    1f38:	e55f      	b.n	19fa <__aeabi_dadd+0x52>
    1f3a:	2200      	movs	r2, #0
    1f3c:	2500      	movs	r5, #0
    1f3e:	e57b      	b.n	1a38 <__aeabi_dadd+0x90>
    1f40:	2b00      	cmp	r3, #0
    1f42:	d03b      	beq.n	1fbc <__aeabi_dadd+0x614>
    1f44:	0003      	movs	r3, r0
    1f46:	4313      	orrs	r3, r2
    1f48:	d015      	beq.n	1f76 <__aeabi_dadd+0x5ce>
    1f4a:	08ed      	lsrs	r5, r5, #3
    1f4c:	074b      	lsls	r3, r1, #29
    1f4e:	432b      	orrs	r3, r5
    1f50:	2580      	movs	r5, #128	; 0x80
    1f52:	08c9      	lsrs	r1, r1, #3
    1f54:	032d      	lsls	r5, r5, #12
    1f56:	4229      	tst	r1, r5
    1f58:	d007      	beq.n	1f6a <__aeabi_dadd+0x5c2>
    1f5a:	08c4      	lsrs	r4, r0, #3
    1f5c:	422c      	tst	r4, r5
    1f5e:	d104      	bne.n	1f6a <__aeabi_dadd+0x5c2>
    1f60:	0741      	lsls	r1, r0, #29
    1f62:	000b      	movs	r3, r1
    1f64:	0021      	movs	r1, r4
    1f66:	08d2      	lsrs	r2, r2, #3
    1f68:	4313      	orrs	r3, r2
    1f6a:	00c9      	lsls	r1, r1, #3
    1f6c:	0f5a      	lsrs	r2, r3, #29
    1f6e:	4311      	orrs	r1, r2
    1f70:	00dd      	lsls	r5, r3, #3
    1f72:	4c21      	ldr	r4, [pc, #132]	; (1ff8 <__aeabi_dadd+0x650>)
    1f74:	e541      	b.n	19fa <__aeabi_dadd+0x52>
    1f76:	4c20      	ldr	r4, [pc, #128]	; (1ff8 <__aeabi_dadd+0x650>)
    1f78:	e53f      	b.n	19fa <__aeabi_dadd+0x52>
    1f7a:	2000      	movs	r0, #0
    1f7c:	e754      	b.n	1e28 <__aeabi_dadd+0x480>
    1f7e:	2600      	movs	r6, #0
    1f80:	2500      	movs	r5, #0
    1f82:	e5d1      	b.n	1b28 <__aeabi_dadd+0x180>
    1f84:	0034      	movs	r4, r6
    1f86:	000f      	movs	r7, r1
    1f88:	3c20      	subs	r4, #32
    1f8a:	40e7      	lsrs	r7, r4
    1f8c:	003c      	movs	r4, r7
    1f8e:	2e20      	cmp	r6, #32
    1f90:	d02b      	beq.n	1fea <__aeabi_dadd+0x642>
    1f92:	2740      	movs	r7, #64	; 0x40
    1f94:	1bbe      	subs	r6, r7, r6
    1f96:	40b1      	lsls	r1, r6
    1f98:	430d      	orrs	r5, r1
    1f9a:	1e69      	subs	r1, r5, #1
    1f9c:	418d      	sbcs	r5, r1
    1f9e:	2100      	movs	r1, #0
    1fa0:	432c      	orrs	r4, r5
    1fa2:	e6bc      	b.n	1d1e <__aeabi_dadd+0x376>
    1fa4:	2180      	movs	r1, #128	; 0x80
    1fa6:	2600      	movs	r6, #0
    1fa8:	0309      	lsls	r1, r1, #12
    1faa:	4c13      	ldr	r4, [pc, #76]	; (1ff8 <__aeabi_dadd+0x650>)
    1fac:	2500      	movs	r5, #0
    1fae:	e5bb      	b.n	1b28 <__aeabi_dadd+0x180>
    1fb0:	430d      	orrs	r5, r1
    1fb2:	1e69      	subs	r1, r5, #1
    1fb4:	418d      	sbcs	r5, r1
    1fb6:	2100      	movs	r1, #0
    1fb8:	b2ed      	uxtb	r5, r5
    1fba:	e769      	b.n	1e90 <__aeabi_dadd+0x4e8>
    1fbc:	0001      	movs	r1, r0
    1fbe:	0015      	movs	r5, r2
    1fc0:	4c0d      	ldr	r4, [pc, #52]	; (1ff8 <__aeabi_dadd+0x650>)
    1fc2:	e51a      	b.n	19fa <__aeabi_dadd+0x52>
    1fc4:	0001      	movs	r1, r0
    1fc6:	0015      	movs	r5, r2
    1fc8:	e517      	b.n	19fa <__aeabi_dadd+0x52>
    1fca:	001c      	movs	r4, r3
    1fcc:	000f      	movs	r7, r1
    1fce:	3c20      	subs	r4, #32
    1fd0:	40e7      	lsrs	r7, r4
    1fd2:	003c      	movs	r4, r7
    1fd4:	2b20      	cmp	r3, #32
    1fd6:	d00c      	beq.n	1ff2 <__aeabi_dadd+0x64a>
    1fd8:	2740      	movs	r7, #64	; 0x40
    1fda:	1afb      	subs	r3, r7, r3
    1fdc:	4099      	lsls	r1, r3
    1fde:	430d      	orrs	r5, r1
    1fe0:	1e69      	subs	r1, r5, #1
    1fe2:	418d      	sbcs	r5, r1
    1fe4:	2100      	movs	r1, #0
    1fe6:	4325      	orrs	r5, r4
    1fe8:	e752      	b.n	1e90 <__aeabi_dadd+0x4e8>
    1fea:	2100      	movs	r1, #0
    1fec:	e7d4      	b.n	1f98 <__aeabi_dadd+0x5f0>
    1fee:	001d      	movs	r5, r3
    1ff0:	e592      	b.n	1b18 <__aeabi_dadd+0x170>
    1ff2:	2100      	movs	r1, #0
    1ff4:	e7f3      	b.n	1fde <__aeabi_dadd+0x636>
    1ff6:	46c0      	nop			; (mov r8, r8)
    1ff8:	000007ff 	.word	0x000007ff
    1ffc:	ff7fffff 	.word	0xff7fffff

00002000 <__aeabi_ddiv>:
    2000:	b5f0      	push	{r4, r5, r6, r7, lr}
    2002:	4656      	mov	r6, sl
    2004:	464d      	mov	r5, r9
    2006:	4644      	mov	r4, r8
    2008:	465f      	mov	r7, fp
    200a:	b4f0      	push	{r4, r5, r6, r7}
    200c:	001d      	movs	r5, r3
    200e:	030e      	lsls	r6, r1, #12
    2010:	004c      	lsls	r4, r1, #1
    2012:	0fcb      	lsrs	r3, r1, #31
    2014:	b087      	sub	sp, #28
    2016:	0007      	movs	r7, r0
    2018:	4692      	mov	sl, r2
    201a:	4681      	mov	r9, r0
    201c:	0b36      	lsrs	r6, r6, #12
    201e:	0d64      	lsrs	r4, r4, #21
    2020:	4698      	mov	r8, r3
    2022:	d06a      	beq.n	20fa <__aeabi_ddiv+0xfa>
    2024:	4b6d      	ldr	r3, [pc, #436]	; (21dc <STACK_SIZE+0x1dc>)
    2026:	429c      	cmp	r4, r3
    2028:	d035      	beq.n	2096 <__aeabi_ddiv+0x96>
    202a:	2280      	movs	r2, #128	; 0x80
    202c:	0f43      	lsrs	r3, r0, #29
    202e:	0412      	lsls	r2, r2, #16
    2030:	4313      	orrs	r3, r2
    2032:	00f6      	lsls	r6, r6, #3
    2034:	431e      	orrs	r6, r3
    2036:	00c3      	lsls	r3, r0, #3
    2038:	4699      	mov	r9, r3
    203a:	4b69      	ldr	r3, [pc, #420]	; (21e0 <STACK_SIZE+0x1e0>)
    203c:	2700      	movs	r7, #0
    203e:	469c      	mov	ip, r3
    2040:	2300      	movs	r3, #0
    2042:	4464      	add	r4, ip
    2044:	9302      	str	r3, [sp, #8]
    2046:	032b      	lsls	r3, r5, #12
    2048:	0068      	lsls	r0, r5, #1
    204a:	0b1b      	lsrs	r3, r3, #12
    204c:	0fed      	lsrs	r5, r5, #31
    204e:	4651      	mov	r1, sl
    2050:	469b      	mov	fp, r3
    2052:	0d40      	lsrs	r0, r0, #21
    2054:	9500      	str	r5, [sp, #0]
    2056:	d100      	bne.n	205a <__aeabi_ddiv+0x5a>
    2058:	e078      	b.n	214c <__aeabi_ddiv+0x14c>
    205a:	4b60      	ldr	r3, [pc, #384]	; (21dc <STACK_SIZE+0x1dc>)
    205c:	4298      	cmp	r0, r3
    205e:	d06c      	beq.n	213a <__aeabi_ddiv+0x13a>
    2060:	465b      	mov	r3, fp
    2062:	00da      	lsls	r2, r3, #3
    2064:	0f4b      	lsrs	r3, r1, #29
    2066:	2180      	movs	r1, #128	; 0x80
    2068:	0409      	lsls	r1, r1, #16
    206a:	430b      	orrs	r3, r1
    206c:	4313      	orrs	r3, r2
    206e:	469b      	mov	fp, r3
    2070:	4653      	mov	r3, sl
    2072:	00d9      	lsls	r1, r3, #3
    2074:	4b5a      	ldr	r3, [pc, #360]	; (21e0 <STACK_SIZE+0x1e0>)
    2076:	469c      	mov	ip, r3
    2078:	2300      	movs	r3, #0
    207a:	4460      	add	r0, ip
    207c:	4642      	mov	r2, r8
    207e:	1a20      	subs	r0, r4, r0
    2080:	406a      	eors	r2, r5
    2082:	4692      	mov	sl, r2
    2084:	9001      	str	r0, [sp, #4]
    2086:	431f      	orrs	r7, r3
    2088:	2f0f      	cmp	r7, #15
    208a:	d900      	bls.n	208e <__aeabi_ddiv+0x8e>
    208c:	e0b0      	b.n	21f0 <STACK_SIZE+0x1f0>
    208e:	4855      	ldr	r0, [pc, #340]	; (21e4 <STACK_SIZE+0x1e4>)
    2090:	00bf      	lsls	r7, r7, #2
    2092:	59c0      	ldr	r0, [r0, r7]
    2094:	4687      	mov	pc, r0
    2096:	4337      	orrs	r7, r6
    2098:	d000      	beq.n	209c <__aeabi_ddiv+0x9c>
    209a:	e088      	b.n	21ae <__aeabi_ddiv+0x1ae>
    209c:	2300      	movs	r3, #0
    209e:	4699      	mov	r9, r3
    20a0:	3302      	adds	r3, #2
    20a2:	2708      	movs	r7, #8
    20a4:	2600      	movs	r6, #0
    20a6:	9302      	str	r3, [sp, #8]
    20a8:	e7cd      	b.n	2046 <__aeabi_ddiv+0x46>
    20aa:	4643      	mov	r3, r8
    20ac:	46b3      	mov	fp, r6
    20ae:	4649      	mov	r1, r9
    20b0:	9300      	str	r3, [sp, #0]
    20b2:	9b02      	ldr	r3, [sp, #8]
    20b4:	9a00      	ldr	r2, [sp, #0]
    20b6:	4692      	mov	sl, r2
    20b8:	2b02      	cmp	r3, #2
    20ba:	d000      	beq.n	20be <__aeabi_ddiv+0xbe>
    20bc:	e1bf      	b.n	243e <STACK_SIZE+0x43e>
    20be:	2100      	movs	r1, #0
    20c0:	4653      	mov	r3, sl
    20c2:	2201      	movs	r2, #1
    20c4:	2600      	movs	r6, #0
    20c6:	4689      	mov	r9, r1
    20c8:	401a      	ands	r2, r3
    20ca:	4b44      	ldr	r3, [pc, #272]	; (21dc <STACK_SIZE+0x1dc>)
    20cc:	2100      	movs	r1, #0
    20ce:	0336      	lsls	r6, r6, #12
    20d0:	0d0c      	lsrs	r4, r1, #20
    20d2:	0524      	lsls	r4, r4, #20
    20d4:	0b36      	lsrs	r6, r6, #12
    20d6:	4326      	orrs	r6, r4
    20d8:	4c43      	ldr	r4, [pc, #268]	; (21e8 <STACK_SIZE+0x1e8>)
    20da:	051b      	lsls	r3, r3, #20
    20dc:	4026      	ands	r6, r4
    20de:	431e      	orrs	r6, r3
    20e0:	0076      	lsls	r6, r6, #1
    20e2:	07d2      	lsls	r2, r2, #31
    20e4:	0876      	lsrs	r6, r6, #1
    20e6:	4316      	orrs	r6, r2
    20e8:	4648      	mov	r0, r9
    20ea:	0031      	movs	r1, r6
    20ec:	b007      	add	sp, #28
    20ee:	bc3c      	pop	{r2, r3, r4, r5}
    20f0:	4690      	mov	r8, r2
    20f2:	4699      	mov	r9, r3
    20f4:	46a2      	mov	sl, r4
    20f6:	46ab      	mov	fp, r5
    20f8:	bdf0      	pop	{r4, r5, r6, r7, pc}
    20fa:	0033      	movs	r3, r6
    20fc:	4303      	orrs	r3, r0
    20fe:	d04f      	beq.n	21a0 <__aeabi_ddiv+0x1a0>
    2100:	2e00      	cmp	r6, #0
    2102:	d100      	bne.n	2106 <__aeabi_ddiv+0x106>
    2104:	e1bc      	b.n	2480 <STACK_SIZE+0x480>
    2106:	0030      	movs	r0, r6
    2108:	f001 f9e4 	bl	34d4 <__clzsi2>
    210c:	0003      	movs	r3, r0
    210e:	3b0b      	subs	r3, #11
    2110:	2b1c      	cmp	r3, #28
    2112:	dd00      	ble.n	2116 <__aeabi_ddiv+0x116>
    2114:	e1ad      	b.n	2472 <STACK_SIZE+0x472>
    2116:	221d      	movs	r2, #29
    2118:	0001      	movs	r1, r0
    211a:	1ad3      	subs	r3, r2, r3
    211c:	3908      	subs	r1, #8
    211e:	003a      	movs	r2, r7
    2120:	408f      	lsls	r7, r1
    2122:	408e      	lsls	r6, r1
    2124:	40da      	lsrs	r2, r3
    2126:	46b9      	mov	r9, r7
    2128:	4316      	orrs	r6, r2
    212a:	4b30      	ldr	r3, [pc, #192]	; (21ec <STACK_SIZE+0x1ec>)
    212c:	2700      	movs	r7, #0
    212e:	469c      	mov	ip, r3
    2130:	2300      	movs	r3, #0
    2132:	4460      	add	r0, ip
    2134:	4244      	negs	r4, r0
    2136:	9302      	str	r3, [sp, #8]
    2138:	e785      	b.n	2046 <__aeabi_ddiv+0x46>
    213a:	4653      	mov	r3, sl
    213c:	465a      	mov	r2, fp
    213e:	4313      	orrs	r3, r2
    2140:	d12c      	bne.n	219c <__aeabi_ddiv+0x19c>
    2142:	2300      	movs	r3, #0
    2144:	2100      	movs	r1, #0
    2146:	469b      	mov	fp, r3
    2148:	3302      	adds	r3, #2
    214a:	e797      	b.n	207c <__aeabi_ddiv+0x7c>
    214c:	430b      	orrs	r3, r1
    214e:	d020      	beq.n	2192 <__aeabi_ddiv+0x192>
    2150:	465b      	mov	r3, fp
    2152:	2b00      	cmp	r3, #0
    2154:	d100      	bne.n	2158 <__aeabi_ddiv+0x158>
    2156:	e19e      	b.n	2496 <STACK_SIZE+0x496>
    2158:	4658      	mov	r0, fp
    215a:	f001 f9bb 	bl	34d4 <__clzsi2>
    215e:	0003      	movs	r3, r0
    2160:	3b0b      	subs	r3, #11
    2162:	2b1c      	cmp	r3, #28
    2164:	dd00      	ble.n	2168 <__aeabi_ddiv+0x168>
    2166:	e18f      	b.n	2488 <STACK_SIZE+0x488>
    2168:	0002      	movs	r2, r0
    216a:	4659      	mov	r1, fp
    216c:	3a08      	subs	r2, #8
    216e:	4091      	lsls	r1, r2
    2170:	468b      	mov	fp, r1
    2172:	211d      	movs	r1, #29
    2174:	1acb      	subs	r3, r1, r3
    2176:	4651      	mov	r1, sl
    2178:	40d9      	lsrs	r1, r3
    217a:	000b      	movs	r3, r1
    217c:	4659      	mov	r1, fp
    217e:	430b      	orrs	r3, r1
    2180:	4651      	mov	r1, sl
    2182:	469b      	mov	fp, r3
    2184:	4091      	lsls	r1, r2
    2186:	4b19      	ldr	r3, [pc, #100]	; (21ec <STACK_SIZE+0x1ec>)
    2188:	469c      	mov	ip, r3
    218a:	4460      	add	r0, ip
    218c:	4240      	negs	r0, r0
    218e:	2300      	movs	r3, #0
    2190:	e774      	b.n	207c <__aeabi_ddiv+0x7c>
    2192:	2300      	movs	r3, #0
    2194:	2100      	movs	r1, #0
    2196:	469b      	mov	fp, r3
    2198:	3301      	adds	r3, #1
    219a:	e76f      	b.n	207c <__aeabi_ddiv+0x7c>
    219c:	2303      	movs	r3, #3
    219e:	e76d      	b.n	207c <__aeabi_ddiv+0x7c>
    21a0:	2300      	movs	r3, #0
    21a2:	4699      	mov	r9, r3
    21a4:	3301      	adds	r3, #1
    21a6:	2704      	movs	r7, #4
    21a8:	2600      	movs	r6, #0
    21aa:	9302      	str	r3, [sp, #8]
    21ac:	e74b      	b.n	2046 <__aeabi_ddiv+0x46>
    21ae:	2303      	movs	r3, #3
    21b0:	270c      	movs	r7, #12
    21b2:	9302      	str	r3, [sp, #8]
    21b4:	e747      	b.n	2046 <__aeabi_ddiv+0x46>
    21b6:	2201      	movs	r2, #1
    21b8:	1ad5      	subs	r5, r2, r3
    21ba:	2d38      	cmp	r5, #56	; 0x38
    21bc:	dc00      	bgt.n	21c0 <__aeabi_ddiv+0x1c0>
    21be:	e1b0      	b.n	2522 <STACK_SIZE+0x522>
    21c0:	4653      	mov	r3, sl
    21c2:	401a      	ands	r2, r3
    21c4:	2100      	movs	r1, #0
    21c6:	2300      	movs	r3, #0
    21c8:	2600      	movs	r6, #0
    21ca:	4689      	mov	r9, r1
    21cc:	e77e      	b.n	20cc <__aeabi_ddiv+0xcc>
    21ce:	2300      	movs	r3, #0
    21d0:	2680      	movs	r6, #128	; 0x80
    21d2:	4699      	mov	r9, r3
    21d4:	2200      	movs	r2, #0
    21d6:	0336      	lsls	r6, r6, #12
    21d8:	4b00      	ldr	r3, [pc, #0]	; (21dc <STACK_SIZE+0x1dc>)
    21da:	e777      	b.n	20cc <__aeabi_ddiv+0xcc>
    21dc:	000007ff 	.word	0x000007ff
    21e0:	fffffc01 	.word	0xfffffc01
    21e4:	00003738 	.word	0x00003738
    21e8:	800fffff 	.word	0x800fffff
    21ec:	000003f3 	.word	0x000003f3
    21f0:	455e      	cmp	r6, fp
    21f2:	d900      	bls.n	21f6 <STACK_SIZE+0x1f6>
    21f4:	e172      	b.n	24dc <STACK_SIZE+0x4dc>
    21f6:	d100      	bne.n	21fa <STACK_SIZE+0x1fa>
    21f8:	e16d      	b.n	24d6 <STACK_SIZE+0x4d6>
    21fa:	9b01      	ldr	r3, [sp, #4]
    21fc:	464d      	mov	r5, r9
    21fe:	3b01      	subs	r3, #1
    2200:	9301      	str	r3, [sp, #4]
    2202:	2300      	movs	r3, #0
    2204:	0034      	movs	r4, r6
    2206:	9302      	str	r3, [sp, #8]
    2208:	465b      	mov	r3, fp
    220a:	021e      	lsls	r6, r3, #8
    220c:	0e0b      	lsrs	r3, r1, #24
    220e:	431e      	orrs	r6, r3
    2210:	020b      	lsls	r3, r1, #8
    2212:	9303      	str	r3, [sp, #12]
    2214:	0c33      	lsrs	r3, r6, #16
    2216:	4699      	mov	r9, r3
    2218:	0433      	lsls	r3, r6, #16
    221a:	0c1b      	lsrs	r3, r3, #16
    221c:	4649      	mov	r1, r9
    221e:	0020      	movs	r0, r4
    2220:	9300      	str	r3, [sp, #0]
    2222:	f7ff fa0d 	bl	1640 <__aeabi_uidiv>
    2226:	9b00      	ldr	r3, [sp, #0]
    2228:	0037      	movs	r7, r6
    222a:	4343      	muls	r3, r0
    222c:	0006      	movs	r6, r0
    222e:	4649      	mov	r1, r9
    2230:	0020      	movs	r0, r4
    2232:	4698      	mov	r8, r3
    2234:	f7ff fa8a 	bl	174c <__aeabi_uidivmod>
    2238:	0c2c      	lsrs	r4, r5, #16
    223a:	0409      	lsls	r1, r1, #16
    223c:	430c      	orrs	r4, r1
    223e:	45a0      	cmp	r8, r4
    2240:	d909      	bls.n	2256 <STACK_SIZE+0x256>
    2242:	19e4      	adds	r4, r4, r7
    2244:	1e73      	subs	r3, r6, #1
    2246:	42a7      	cmp	r7, r4
    2248:	d900      	bls.n	224c <STACK_SIZE+0x24c>
    224a:	e15c      	b.n	2506 <STACK_SIZE+0x506>
    224c:	45a0      	cmp	r8, r4
    224e:	d800      	bhi.n	2252 <STACK_SIZE+0x252>
    2250:	e159      	b.n	2506 <STACK_SIZE+0x506>
    2252:	3e02      	subs	r6, #2
    2254:	19e4      	adds	r4, r4, r7
    2256:	4643      	mov	r3, r8
    2258:	1ae4      	subs	r4, r4, r3
    225a:	4649      	mov	r1, r9
    225c:	0020      	movs	r0, r4
    225e:	f7ff f9ef 	bl	1640 <__aeabi_uidiv>
    2262:	0003      	movs	r3, r0
    2264:	9a00      	ldr	r2, [sp, #0]
    2266:	4680      	mov	r8, r0
    2268:	4353      	muls	r3, r2
    226a:	4649      	mov	r1, r9
    226c:	0020      	movs	r0, r4
    226e:	469b      	mov	fp, r3
    2270:	f7ff fa6c 	bl	174c <__aeabi_uidivmod>
    2274:	042a      	lsls	r2, r5, #16
    2276:	0409      	lsls	r1, r1, #16
    2278:	0c12      	lsrs	r2, r2, #16
    227a:	430a      	orrs	r2, r1
    227c:	4593      	cmp	fp, r2
    227e:	d90d      	bls.n	229c <STACK_SIZE+0x29c>
    2280:	4643      	mov	r3, r8
    2282:	19d2      	adds	r2, r2, r7
    2284:	3b01      	subs	r3, #1
    2286:	4297      	cmp	r7, r2
    2288:	d900      	bls.n	228c <STACK_SIZE+0x28c>
    228a:	e13a      	b.n	2502 <STACK_SIZE+0x502>
    228c:	4593      	cmp	fp, r2
    228e:	d800      	bhi.n	2292 <STACK_SIZE+0x292>
    2290:	e137      	b.n	2502 <STACK_SIZE+0x502>
    2292:	2302      	movs	r3, #2
    2294:	425b      	negs	r3, r3
    2296:	469c      	mov	ip, r3
    2298:	19d2      	adds	r2, r2, r7
    229a:	44e0      	add	r8, ip
    229c:	465b      	mov	r3, fp
    229e:	1ad2      	subs	r2, r2, r3
    22a0:	4643      	mov	r3, r8
    22a2:	0436      	lsls	r6, r6, #16
    22a4:	4333      	orrs	r3, r6
    22a6:	469b      	mov	fp, r3
    22a8:	9903      	ldr	r1, [sp, #12]
    22aa:	0c18      	lsrs	r0, r3, #16
    22ac:	0c0b      	lsrs	r3, r1, #16
    22ae:	001d      	movs	r5, r3
    22b0:	9305      	str	r3, [sp, #20]
    22b2:	0409      	lsls	r1, r1, #16
    22b4:	465b      	mov	r3, fp
    22b6:	0c09      	lsrs	r1, r1, #16
    22b8:	000c      	movs	r4, r1
    22ba:	041b      	lsls	r3, r3, #16
    22bc:	0c1b      	lsrs	r3, r3, #16
    22be:	4344      	muls	r4, r0
    22c0:	9104      	str	r1, [sp, #16]
    22c2:	4359      	muls	r1, r3
    22c4:	436b      	muls	r3, r5
    22c6:	4368      	muls	r0, r5
    22c8:	191b      	adds	r3, r3, r4
    22ca:	0c0d      	lsrs	r5, r1, #16
    22cc:	18eb      	adds	r3, r5, r3
    22ce:	429c      	cmp	r4, r3
    22d0:	d903      	bls.n	22da <STACK_SIZE+0x2da>
    22d2:	2480      	movs	r4, #128	; 0x80
    22d4:	0264      	lsls	r4, r4, #9
    22d6:	46a4      	mov	ip, r4
    22d8:	4460      	add	r0, ip
    22da:	0c1c      	lsrs	r4, r3, #16
    22dc:	0409      	lsls	r1, r1, #16
    22de:	041b      	lsls	r3, r3, #16
    22e0:	0c09      	lsrs	r1, r1, #16
    22e2:	1820      	adds	r0, r4, r0
    22e4:	185d      	adds	r5, r3, r1
    22e6:	4282      	cmp	r2, r0
    22e8:	d200      	bcs.n	22ec <STACK_SIZE+0x2ec>
    22ea:	e0de      	b.n	24aa <STACK_SIZE+0x4aa>
    22ec:	d100      	bne.n	22f0 <STACK_SIZE+0x2f0>
    22ee:	e0d7      	b.n	24a0 <STACK_SIZE+0x4a0>
    22f0:	1a16      	subs	r6, r2, r0
    22f2:	9b02      	ldr	r3, [sp, #8]
    22f4:	469c      	mov	ip, r3
    22f6:	1b5d      	subs	r5, r3, r5
    22f8:	45ac      	cmp	ip, r5
    22fa:	419b      	sbcs	r3, r3
    22fc:	425b      	negs	r3, r3
    22fe:	1af6      	subs	r6, r6, r3
    2300:	42b7      	cmp	r7, r6
    2302:	d100      	bne.n	2306 <STACK_SIZE+0x306>
    2304:	e106      	b.n	2514 <STACK_SIZE+0x514>
    2306:	4649      	mov	r1, r9
    2308:	0030      	movs	r0, r6
    230a:	f7ff f999 	bl	1640 <__aeabi_uidiv>
    230e:	9b00      	ldr	r3, [sp, #0]
    2310:	0004      	movs	r4, r0
    2312:	4343      	muls	r3, r0
    2314:	4649      	mov	r1, r9
    2316:	0030      	movs	r0, r6
    2318:	4698      	mov	r8, r3
    231a:	f7ff fa17 	bl	174c <__aeabi_uidivmod>
    231e:	0c2e      	lsrs	r6, r5, #16
    2320:	0409      	lsls	r1, r1, #16
    2322:	430e      	orrs	r6, r1
    2324:	45b0      	cmp	r8, r6
    2326:	d909      	bls.n	233c <STACK_SIZE+0x33c>
    2328:	19f6      	adds	r6, r6, r7
    232a:	1e63      	subs	r3, r4, #1
    232c:	42b7      	cmp	r7, r6
    232e:	d900      	bls.n	2332 <STACK_SIZE+0x332>
    2330:	e0f3      	b.n	251a <STACK_SIZE+0x51a>
    2332:	45b0      	cmp	r8, r6
    2334:	d800      	bhi.n	2338 <STACK_SIZE+0x338>
    2336:	e0f0      	b.n	251a <STACK_SIZE+0x51a>
    2338:	3c02      	subs	r4, #2
    233a:	19f6      	adds	r6, r6, r7
    233c:	4643      	mov	r3, r8
    233e:	1af3      	subs	r3, r6, r3
    2340:	4649      	mov	r1, r9
    2342:	0018      	movs	r0, r3
    2344:	9302      	str	r3, [sp, #8]
    2346:	f7ff f97b 	bl	1640 <__aeabi_uidiv>
    234a:	9b00      	ldr	r3, [sp, #0]
    234c:	0006      	movs	r6, r0
    234e:	4343      	muls	r3, r0
    2350:	4649      	mov	r1, r9
    2352:	9802      	ldr	r0, [sp, #8]
    2354:	4698      	mov	r8, r3
    2356:	f7ff f9f9 	bl	174c <__aeabi_uidivmod>
    235a:	042d      	lsls	r5, r5, #16
    235c:	0409      	lsls	r1, r1, #16
    235e:	0c2d      	lsrs	r5, r5, #16
    2360:	430d      	orrs	r5, r1
    2362:	45a8      	cmp	r8, r5
    2364:	d909      	bls.n	237a <STACK_SIZE+0x37a>
    2366:	19ed      	adds	r5, r5, r7
    2368:	1e73      	subs	r3, r6, #1
    236a:	42af      	cmp	r7, r5
    236c:	d900      	bls.n	2370 <STACK_SIZE+0x370>
    236e:	e0d6      	b.n	251e <STACK_SIZE+0x51e>
    2370:	45a8      	cmp	r8, r5
    2372:	d800      	bhi.n	2376 <STACK_SIZE+0x376>
    2374:	e0d3      	b.n	251e <STACK_SIZE+0x51e>
    2376:	3e02      	subs	r6, #2
    2378:	19ed      	adds	r5, r5, r7
    237a:	0424      	lsls	r4, r4, #16
    237c:	0021      	movs	r1, r4
    237e:	4643      	mov	r3, r8
    2380:	4331      	orrs	r1, r6
    2382:	9e04      	ldr	r6, [sp, #16]
    2384:	9a05      	ldr	r2, [sp, #20]
    2386:	0030      	movs	r0, r6
    2388:	1aed      	subs	r5, r5, r3
    238a:	040b      	lsls	r3, r1, #16
    238c:	0c0c      	lsrs	r4, r1, #16
    238e:	0c1b      	lsrs	r3, r3, #16
    2390:	4358      	muls	r0, r3
    2392:	4366      	muls	r6, r4
    2394:	4353      	muls	r3, r2
    2396:	4354      	muls	r4, r2
    2398:	199a      	adds	r2, r3, r6
    239a:	0c03      	lsrs	r3, r0, #16
    239c:	189b      	adds	r3, r3, r2
    239e:	429e      	cmp	r6, r3
    23a0:	d903      	bls.n	23aa <STACK_SIZE+0x3aa>
    23a2:	2280      	movs	r2, #128	; 0x80
    23a4:	0252      	lsls	r2, r2, #9
    23a6:	4694      	mov	ip, r2
    23a8:	4464      	add	r4, ip
    23aa:	0c1a      	lsrs	r2, r3, #16
    23ac:	0400      	lsls	r0, r0, #16
    23ae:	041b      	lsls	r3, r3, #16
    23b0:	0c00      	lsrs	r0, r0, #16
    23b2:	1914      	adds	r4, r2, r4
    23b4:	181b      	adds	r3, r3, r0
    23b6:	42a5      	cmp	r5, r4
    23b8:	d350      	bcc.n	245c <STACK_SIZE+0x45c>
    23ba:	d04d      	beq.n	2458 <STACK_SIZE+0x458>
    23bc:	2301      	movs	r3, #1
    23be:	4319      	orrs	r1, r3
    23c0:	4a96      	ldr	r2, [pc, #600]	; (261c <STACK_SIZE+0x61c>)
    23c2:	9b01      	ldr	r3, [sp, #4]
    23c4:	4694      	mov	ip, r2
    23c6:	4463      	add	r3, ip
    23c8:	2b00      	cmp	r3, #0
    23ca:	dc00      	bgt.n	23ce <STACK_SIZE+0x3ce>
    23cc:	e6f3      	b.n	21b6 <__aeabi_ddiv+0x1b6>
    23ce:	074a      	lsls	r2, r1, #29
    23d0:	d009      	beq.n	23e6 <STACK_SIZE+0x3e6>
    23d2:	220f      	movs	r2, #15
    23d4:	400a      	ands	r2, r1
    23d6:	2a04      	cmp	r2, #4
    23d8:	d005      	beq.n	23e6 <STACK_SIZE+0x3e6>
    23da:	1d0a      	adds	r2, r1, #4
    23dc:	428a      	cmp	r2, r1
    23de:	4189      	sbcs	r1, r1
    23e0:	4249      	negs	r1, r1
    23e2:	448b      	add	fp, r1
    23e4:	0011      	movs	r1, r2
    23e6:	465a      	mov	r2, fp
    23e8:	01d2      	lsls	r2, r2, #7
    23ea:	d508      	bpl.n	23fe <STACK_SIZE+0x3fe>
    23ec:	465a      	mov	r2, fp
    23ee:	4b8c      	ldr	r3, [pc, #560]	; (2620 <STACK_SIZE+0x620>)
    23f0:	401a      	ands	r2, r3
    23f2:	4693      	mov	fp, r2
    23f4:	2280      	movs	r2, #128	; 0x80
    23f6:	00d2      	lsls	r2, r2, #3
    23f8:	4694      	mov	ip, r2
    23fa:	9b01      	ldr	r3, [sp, #4]
    23fc:	4463      	add	r3, ip
    23fe:	4a89      	ldr	r2, [pc, #548]	; (2624 <STACK_SIZE+0x624>)
    2400:	4293      	cmp	r3, r2
    2402:	dd00      	ble.n	2406 <STACK_SIZE+0x406>
    2404:	e65b      	b.n	20be <__aeabi_ddiv+0xbe>
    2406:	465a      	mov	r2, fp
    2408:	08c9      	lsrs	r1, r1, #3
    240a:	0750      	lsls	r0, r2, #29
    240c:	4308      	orrs	r0, r1
    240e:	0256      	lsls	r6, r2, #9
    2410:	4651      	mov	r1, sl
    2412:	2201      	movs	r2, #1
    2414:	055b      	lsls	r3, r3, #21
    2416:	4681      	mov	r9, r0
    2418:	0b36      	lsrs	r6, r6, #12
    241a:	0d5b      	lsrs	r3, r3, #21
    241c:	400a      	ands	r2, r1
    241e:	e655      	b.n	20cc <__aeabi_ddiv+0xcc>
    2420:	2380      	movs	r3, #128	; 0x80
    2422:	031b      	lsls	r3, r3, #12
    2424:	421e      	tst	r6, r3
    2426:	d011      	beq.n	244c <STACK_SIZE+0x44c>
    2428:	465a      	mov	r2, fp
    242a:	421a      	tst	r2, r3
    242c:	d10e      	bne.n	244c <STACK_SIZE+0x44c>
    242e:	465e      	mov	r6, fp
    2430:	431e      	orrs	r6, r3
    2432:	0336      	lsls	r6, r6, #12
    2434:	0b36      	lsrs	r6, r6, #12
    2436:	002a      	movs	r2, r5
    2438:	4689      	mov	r9, r1
    243a:	4b7b      	ldr	r3, [pc, #492]	; (2628 <STACK_SIZE+0x628>)
    243c:	e646      	b.n	20cc <__aeabi_ddiv+0xcc>
    243e:	2b03      	cmp	r3, #3
    2440:	d100      	bne.n	2444 <STACK_SIZE+0x444>
    2442:	e0e1      	b.n	2608 <STACK_SIZE+0x608>
    2444:	2b01      	cmp	r3, #1
    2446:	d1bb      	bne.n	23c0 <STACK_SIZE+0x3c0>
    2448:	401a      	ands	r2, r3
    244a:	e6bb      	b.n	21c4 <__aeabi_ddiv+0x1c4>
    244c:	431e      	orrs	r6, r3
    244e:	0336      	lsls	r6, r6, #12
    2450:	0b36      	lsrs	r6, r6, #12
    2452:	4642      	mov	r2, r8
    2454:	4b74      	ldr	r3, [pc, #464]	; (2628 <STACK_SIZE+0x628>)
    2456:	e639      	b.n	20cc <__aeabi_ddiv+0xcc>
    2458:	2b00      	cmp	r3, #0
    245a:	d0b1      	beq.n	23c0 <STACK_SIZE+0x3c0>
    245c:	197d      	adds	r5, r7, r5
    245e:	1e4a      	subs	r2, r1, #1
    2460:	42af      	cmp	r7, r5
    2462:	d952      	bls.n	250a <STACK_SIZE+0x50a>
    2464:	0011      	movs	r1, r2
    2466:	42a5      	cmp	r5, r4
    2468:	d1a8      	bne.n	23bc <STACK_SIZE+0x3bc>
    246a:	9a03      	ldr	r2, [sp, #12]
    246c:	429a      	cmp	r2, r3
    246e:	d1a5      	bne.n	23bc <STACK_SIZE+0x3bc>
    2470:	e7a6      	b.n	23c0 <STACK_SIZE+0x3c0>
    2472:	0003      	movs	r3, r0
    2474:	003e      	movs	r6, r7
    2476:	3b28      	subs	r3, #40	; 0x28
    2478:	409e      	lsls	r6, r3
    247a:	2300      	movs	r3, #0
    247c:	4699      	mov	r9, r3
    247e:	e654      	b.n	212a <__aeabi_ddiv+0x12a>
    2480:	f001 f828 	bl	34d4 <__clzsi2>
    2484:	3020      	adds	r0, #32
    2486:	e641      	b.n	210c <__aeabi_ddiv+0x10c>
    2488:	0003      	movs	r3, r0
    248a:	4652      	mov	r2, sl
    248c:	3b28      	subs	r3, #40	; 0x28
    248e:	409a      	lsls	r2, r3
    2490:	2100      	movs	r1, #0
    2492:	4693      	mov	fp, r2
    2494:	e677      	b.n	2186 <__aeabi_ddiv+0x186>
    2496:	4650      	mov	r0, sl
    2498:	f001 f81c 	bl	34d4 <__clzsi2>
    249c:	3020      	adds	r0, #32
    249e:	e65e      	b.n	215e <__aeabi_ddiv+0x15e>
    24a0:	9b02      	ldr	r3, [sp, #8]
    24a2:	2600      	movs	r6, #0
    24a4:	42ab      	cmp	r3, r5
    24a6:	d300      	bcc.n	24aa <STACK_SIZE+0x4aa>
    24a8:	e723      	b.n	22f2 <STACK_SIZE+0x2f2>
    24aa:	9e03      	ldr	r6, [sp, #12]
    24ac:	9902      	ldr	r1, [sp, #8]
    24ae:	46b4      	mov	ip, r6
    24b0:	4461      	add	r1, ip
    24b2:	4688      	mov	r8, r1
    24b4:	45b0      	cmp	r8, r6
    24b6:	41b6      	sbcs	r6, r6
    24b8:	465b      	mov	r3, fp
    24ba:	4276      	negs	r6, r6
    24bc:	19f6      	adds	r6, r6, r7
    24be:	18b2      	adds	r2, r6, r2
    24c0:	3b01      	subs	r3, #1
    24c2:	9102      	str	r1, [sp, #8]
    24c4:	4297      	cmp	r7, r2
    24c6:	d213      	bcs.n	24f0 <STACK_SIZE+0x4f0>
    24c8:	4290      	cmp	r0, r2
    24ca:	d84f      	bhi.n	256c <STACK_SIZE+0x56c>
    24cc:	d100      	bne.n	24d0 <STACK_SIZE+0x4d0>
    24ce:	e08e      	b.n	25ee <STACK_SIZE+0x5ee>
    24d0:	1a16      	subs	r6, r2, r0
    24d2:	469b      	mov	fp, r3
    24d4:	e70d      	b.n	22f2 <STACK_SIZE+0x2f2>
    24d6:	4589      	cmp	r9, r1
    24d8:	d200      	bcs.n	24dc <STACK_SIZE+0x4dc>
    24da:	e68e      	b.n	21fa <STACK_SIZE+0x1fa>
    24dc:	0874      	lsrs	r4, r6, #1
    24de:	464b      	mov	r3, r9
    24e0:	07f6      	lsls	r6, r6, #31
    24e2:	0035      	movs	r5, r6
    24e4:	085b      	lsrs	r3, r3, #1
    24e6:	431d      	orrs	r5, r3
    24e8:	464b      	mov	r3, r9
    24ea:	07db      	lsls	r3, r3, #31
    24ec:	9302      	str	r3, [sp, #8]
    24ee:	e68b      	b.n	2208 <STACK_SIZE+0x208>
    24f0:	4297      	cmp	r7, r2
    24f2:	d1ed      	bne.n	24d0 <STACK_SIZE+0x4d0>
    24f4:	9903      	ldr	r1, [sp, #12]
    24f6:	9c02      	ldr	r4, [sp, #8]
    24f8:	42a1      	cmp	r1, r4
    24fa:	d9e5      	bls.n	24c8 <STACK_SIZE+0x4c8>
    24fc:	1a3e      	subs	r6, r7, r0
    24fe:	469b      	mov	fp, r3
    2500:	e6f7      	b.n	22f2 <STACK_SIZE+0x2f2>
    2502:	4698      	mov	r8, r3
    2504:	e6ca      	b.n	229c <STACK_SIZE+0x29c>
    2506:	001e      	movs	r6, r3
    2508:	e6a5      	b.n	2256 <STACK_SIZE+0x256>
    250a:	42ac      	cmp	r4, r5
    250c:	d83e      	bhi.n	258c <STACK_SIZE+0x58c>
    250e:	d074      	beq.n	25fa <STACK_SIZE+0x5fa>
    2510:	0011      	movs	r1, r2
    2512:	e753      	b.n	23bc <STACK_SIZE+0x3bc>
    2514:	2101      	movs	r1, #1
    2516:	4249      	negs	r1, r1
    2518:	e752      	b.n	23c0 <STACK_SIZE+0x3c0>
    251a:	001c      	movs	r4, r3
    251c:	e70e      	b.n	233c <STACK_SIZE+0x33c>
    251e:	001e      	movs	r6, r3
    2520:	e72b      	b.n	237a <STACK_SIZE+0x37a>
    2522:	2d1f      	cmp	r5, #31
    2524:	dc3c      	bgt.n	25a0 <STACK_SIZE+0x5a0>
    2526:	2320      	movs	r3, #32
    2528:	000a      	movs	r2, r1
    252a:	4658      	mov	r0, fp
    252c:	1b5b      	subs	r3, r3, r5
    252e:	4098      	lsls	r0, r3
    2530:	40ea      	lsrs	r2, r5
    2532:	4099      	lsls	r1, r3
    2534:	4302      	orrs	r2, r0
    2536:	1e48      	subs	r0, r1, #1
    2538:	4181      	sbcs	r1, r0
    253a:	465e      	mov	r6, fp
    253c:	4311      	orrs	r1, r2
    253e:	40ee      	lsrs	r6, r5
    2540:	074b      	lsls	r3, r1, #29
    2542:	d009      	beq.n	2558 <STACK_SIZE+0x558>
    2544:	230f      	movs	r3, #15
    2546:	400b      	ands	r3, r1
    2548:	2b04      	cmp	r3, #4
    254a:	d005      	beq.n	2558 <STACK_SIZE+0x558>
    254c:	000b      	movs	r3, r1
    254e:	1d19      	adds	r1, r3, #4
    2550:	4299      	cmp	r1, r3
    2552:	419b      	sbcs	r3, r3
    2554:	425b      	negs	r3, r3
    2556:	18f6      	adds	r6, r6, r3
    2558:	0233      	lsls	r3, r6, #8
    255a:	d53c      	bpl.n	25d6 <STACK_SIZE+0x5d6>
    255c:	4653      	mov	r3, sl
    255e:	2201      	movs	r2, #1
    2560:	2100      	movs	r1, #0
    2562:	401a      	ands	r2, r3
    2564:	2600      	movs	r6, #0
    2566:	2301      	movs	r3, #1
    2568:	4689      	mov	r9, r1
    256a:	e5af      	b.n	20cc <__aeabi_ddiv+0xcc>
    256c:	2302      	movs	r3, #2
    256e:	425b      	negs	r3, r3
    2570:	469c      	mov	ip, r3
    2572:	9c03      	ldr	r4, [sp, #12]
    2574:	44e3      	add	fp, ip
    2576:	46a4      	mov	ip, r4
    2578:	9b02      	ldr	r3, [sp, #8]
    257a:	4463      	add	r3, ip
    257c:	4698      	mov	r8, r3
    257e:	45a0      	cmp	r8, r4
    2580:	41b6      	sbcs	r6, r6
    2582:	4276      	negs	r6, r6
    2584:	19f6      	adds	r6, r6, r7
    2586:	9302      	str	r3, [sp, #8]
    2588:	18b2      	adds	r2, r6, r2
    258a:	e6b1      	b.n	22f0 <STACK_SIZE+0x2f0>
    258c:	9803      	ldr	r0, [sp, #12]
    258e:	1e8a      	subs	r2, r1, #2
    2590:	0041      	lsls	r1, r0, #1
    2592:	4281      	cmp	r1, r0
    2594:	41b6      	sbcs	r6, r6
    2596:	4276      	negs	r6, r6
    2598:	19f6      	adds	r6, r6, r7
    259a:	19ad      	adds	r5, r5, r6
    259c:	9103      	str	r1, [sp, #12]
    259e:	e761      	b.n	2464 <STACK_SIZE+0x464>
    25a0:	221f      	movs	r2, #31
    25a2:	4252      	negs	r2, r2
    25a4:	1ad3      	subs	r3, r2, r3
    25a6:	465a      	mov	r2, fp
    25a8:	40da      	lsrs	r2, r3
    25aa:	0013      	movs	r3, r2
    25ac:	2d20      	cmp	r5, #32
    25ae:	d029      	beq.n	2604 <STACK_SIZE+0x604>
    25b0:	2240      	movs	r2, #64	; 0x40
    25b2:	4658      	mov	r0, fp
    25b4:	1b55      	subs	r5, r2, r5
    25b6:	40a8      	lsls	r0, r5
    25b8:	4301      	orrs	r1, r0
    25ba:	1e48      	subs	r0, r1, #1
    25bc:	4181      	sbcs	r1, r0
    25be:	2007      	movs	r0, #7
    25c0:	430b      	orrs	r3, r1
    25c2:	4018      	ands	r0, r3
    25c4:	2600      	movs	r6, #0
    25c6:	2800      	cmp	r0, #0
    25c8:	d009      	beq.n	25de <STACK_SIZE+0x5de>
    25ca:	220f      	movs	r2, #15
    25cc:	2600      	movs	r6, #0
    25ce:	401a      	ands	r2, r3
    25d0:	0019      	movs	r1, r3
    25d2:	2a04      	cmp	r2, #4
    25d4:	d1bb      	bne.n	254e <STACK_SIZE+0x54e>
    25d6:	000b      	movs	r3, r1
    25d8:	0770      	lsls	r0, r6, #29
    25da:	0276      	lsls	r6, r6, #9
    25dc:	0b36      	lsrs	r6, r6, #12
    25de:	08db      	lsrs	r3, r3, #3
    25e0:	4303      	orrs	r3, r0
    25e2:	4699      	mov	r9, r3
    25e4:	2201      	movs	r2, #1
    25e6:	4653      	mov	r3, sl
    25e8:	401a      	ands	r2, r3
    25ea:	2300      	movs	r3, #0
    25ec:	e56e      	b.n	20cc <__aeabi_ddiv+0xcc>
    25ee:	9902      	ldr	r1, [sp, #8]
    25f0:	428d      	cmp	r5, r1
    25f2:	d8bb      	bhi.n	256c <STACK_SIZE+0x56c>
    25f4:	469b      	mov	fp, r3
    25f6:	2600      	movs	r6, #0
    25f8:	e67b      	b.n	22f2 <STACK_SIZE+0x2f2>
    25fa:	9803      	ldr	r0, [sp, #12]
    25fc:	4298      	cmp	r0, r3
    25fe:	d3c5      	bcc.n	258c <STACK_SIZE+0x58c>
    2600:	0011      	movs	r1, r2
    2602:	e732      	b.n	246a <STACK_SIZE+0x46a>
    2604:	2000      	movs	r0, #0
    2606:	e7d7      	b.n	25b8 <STACK_SIZE+0x5b8>
    2608:	2680      	movs	r6, #128	; 0x80
    260a:	465b      	mov	r3, fp
    260c:	0336      	lsls	r6, r6, #12
    260e:	431e      	orrs	r6, r3
    2610:	0336      	lsls	r6, r6, #12
    2612:	0b36      	lsrs	r6, r6, #12
    2614:	9a00      	ldr	r2, [sp, #0]
    2616:	4689      	mov	r9, r1
    2618:	4b03      	ldr	r3, [pc, #12]	; (2628 <STACK_SIZE+0x628>)
    261a:	e557      	b.n	20cc <__aeabi_ddiv+0xcc>
    261c:	000003ff 	.word	0x000003ff
    2620:	feffffff 	.word	0xfeffffff
    2624:	000007fe 	.word	0x000007fe
    2628:	000007ff 	.word	0x000007ff

0000262c <__eqdf2>:
    262c:	b5f0      	push	{r4, r5, r6, r7, lr}
    262e:	465f      	mov	r7, fp
    2630:	4656      	mov	r6, sl
    2632:	464d      	mov	r5, r9
    2634:	4644      	mov	r4, r8
    2636:	b4f0      	push	{r4, r5, r6, r7}
    2638:	031f      	lsls	r7, r3, #12
    263a:	005c      	lsls	r4, r3, #1
    263c:	0fdb      	lsrs	r3, r3, #31
    263e:	469a      	mov	sl, r3
    2640:	4b19      	ldr	r3, [pc, #100]	; (26a8 <__eqdf2+0x7c>)
    2642:	030e      	lsls	r6, r1, #12
    2644:	004d      	lsls	r5, r1, #1
    2646:	0fc9      	lsrs	r1, r1, #31
    2648:	4680      	mov	r8, r0
    264a:	0b36      	lsrs	r6, r6, #12
    264c:	0d6d      	lsrs	r5, r5, #21
    264e:	468b      	mov	fp, r1
    2650:	4691      	mov	r9, r2
    2652:	0b3f      	lsrs	r7, r7, #12
    2654:	0d64      	lsrs	r4, r4, #21
    2656:	429d      	cmp	r5, r3
    2658:	d019      	beq.n	268e <__eqdf2+0x62>
    265a:	4b13      	ldr	r3, [pc, #76]	; (26a8 <__eqdf2+0x7c>)
    265c:	429c      	cmp	r4, r3
    265e:	d01b      	beq.n	2698 <__eqdf2+0x6c>
    2660:	2301      	movs	r3, #1
    2662:	42a5      	cmp	r5, r4
    2664:	d006      	beq.n	2674 <__eqdf2+0x48>
    2666:	0018      	movs	r0, r3
    2668:	bc3c      	pop	{r2, r3, r4, r5}
    266a:	4690      	mov	r8, r2
    266c:	4699      	mov	r9, r3
    266e:	46a2      	mov	sl, r4
    2670:	46ab      	mov	fp, r5
    2672:	bdf0      	pop	{r4, r5, r6, r7, pc}
    2674:	42be      	cmp	r6, r7
    2676:	d1f6      	bne.n	2666 <__eqdf2+0x3a>
    2678:	45c8      	cmp	r8, r9
    267a:	d1f4      	bne.n	2666 <__eqdf2+0x3a>
    267c:	45d3      	cmp	fp, sl
    267e:	d010      	beq.n	26a2 <__eqdf2+0x76>
    2680:	2d00      	cmp	r5, #0
    2682:	d1f0      	bne.n	2666 <__eqdf2+0x3a>
    2684:	4330      	orrs	r0, r6
    2686:	0003      	movs	r3, r0
    2688:	1e5a      	subs	r2, r3, #1
    268a:	4193      	sbcs	r3, r2
    268c:	e7eb      	b.n	2666 <__eqdf2+0x3a>
    268e:	0031      	movs	r1, r6
    2690:	2301      	movs	r3, #1
    2692:	4301      	orrs	r1, r0
    2694:	d1e7      	bne.n	2666 <__eqdf2+0x3a>
    2696:	e7e0      	b.n	265a <__eqdf2+0x2e>
    2698:	433a      	orrs	r2, r7
    269a:	2301      	movs	r3, #1
    269c:	2a00      	cmp	r2, #0
    269e:	d1e2      	bne.n	2666 <__eqdf2+0x3a>
    26a0:	e7de      	b.n	2660 <__eqdf2+0x34>
    26a2:	2300      	movs	r3, #0
    26a4:	e7df      	b.n	2666 <__eqdf2+0x3a>
    26a6:	46c0      	nop			; (mov r8, r8)
    26a8:	000007ff 	.word	0x000007ff

000026ac <__gedf2>:
    26ac:	b5f0      	push	{r4, r5, r6, r7, lr}
    26ae:	465f      	mov	r7, fp
    26b0:	4644      	mov	r4, r8
    26b2:	4656      	mov	r6, sl
    26b4:	464d      	mov	r5, r9
    26b6:	b4f0      	push	{r4, r5, r6, r7}
    26b8:	031f      	lsls	r7, r3, #12
    26ba:	0b3c      	lsrs	r4, r7, #12
    26bc:	4f2c      	ldr	r7, [pc, #176]	; (2770 <__gedf2+0xc4>)
    26be:	030e      	lsls	r6, r1, #12
    26c0:	004d      	lsls	r5, r1, #1
    26c2:	46a3      	mov	fp, r4
    26c4:	005c      	lsls	r4, r3, #1
    26c6:	4684      	mov	ip, r0
    26c8:	0b36      	lsrs	r6, r6, #12
    26ca:	0d6d      	lsrs	r5, r5, #21
    26cc:	0fc9      	lsrs	r1, r1, #31
    26ce:	4690      	mov	r8, r2
    26d0:	0d64      	lsrs	r4, r4, #21
    26d2:	0fdb      	lsrs	r3, r3, #31
    26d4:	42bd      	cmp	r5, r7
    26d6:	d02b      	beq.n	2730 <__gedf2+0x84>
    26d8:	4f25      	ldr	r7, [pc, #148]	; (2770 <__gedf2+0xc4>)
    26da:	42bc      	cmp	r4, r7
    26dc:	d02e      	beq.n	273c <__gedf2+0x90>
    26de:	2d00      	cmp	r5, #0
    26e0:	d10e      	bne.n	2700 <__gedf2+0x54>
    26e2:	4330      	orrs	r0, r6
    26e4:	0007      	movs	r7, r0
    26e6:	4681      	mov	r9, r0
    26e8:	4278      	negs	r0, r7
    26ea:	4178      	adcs	r0, r7
    26ec:	2c00      	cmp	r4, #0
    26ee:	d117      	bne.n	2720 <__gedf2+0x74>
    26f0:	465f      	mov	r7, fp
    26f2:	433a      	orrs	r2, r7
    26f4:	d114      	bne.n	2720 <__gedf2+0x74>
    26f6:	464b      	mov	r3, r9
    26f8:	2000      	movs	r0, #0
    26fa:	2b00      	cmp	r3, #0
    26fc:	d00a      	beq.n	2714 <__gedf2+0x68>
    26fe:	e006      	b.n	270e <__gedf2+0x62>
    2700:	2c00      	cmp	r4, #0
    2702:	d102      	bne.n	270a <__gedf2+0x5e>
    2704:	4658      	mov	r0, fp
    2706:	4302      	orrs	r2, r0
    2708:	d001      	beq.n	270e <__gedf2+0x62>
    270a:	4299      	cmp	r1, r3
    270c:	d01a      	beq.n	2744 <__gedf2+0x98>
    270e:	2301      	movs	r3, #1
    2710:	4248      	negs	r0, r1
    2712:	4318      	orrs	r0, r3
    2714:	bc3c      	pop	{r2, r3, r4, r5}
    2716:	4690      	mov	r8, r2
    2718:	4699      	mov	r9, r3
    271a:	46a2      	mov	sl, r4
    271c:	46ab      	mov	fp, r5
    271e:	bdf0      	pop	{r4, r5, r6, r7, pc}
    2720:	2800      	cmp	r0, #0
    2722:	d0f2      	beq.n	270a <__gedf2+0x5e>
    2724:	4258      	negs	r0, r3
    2726:	4158      	adcs	r0, r3
    2728:	2201      	movs	r2, #1
    272a:	4240      	negs	r0, r0
    272c:	4310      	orrs	r0, r2
    272e:	e7f1      	b.n	2714 <__gedf2+0x68>
    2730:	0037      	movs	r7, r6
    2732:	4307      	orrs	r7, r0
    2734:	d0d0      	beq.n	26d8 <__gedf2+0x2c>
    2736:	2002      	movs	r0, #2
    2738:	4240      	negs	r0, r0
    273a:	e7eb      	b.n	2714 <__gedf2+0x68>
    273c:	465f      	mov	r7, fp
    273e:	4317      	orrs	r7, r2
    2740:	d0cd      	beq.n	26de <__gedf2+0x32>
    2742:	e7f8      	b.n	2736 <__gedf2+0x8a>
    2744:	42a5      	cmp	r5, r4
    2746:	dce2      	bgt.n	270e <__gedf2+0x62>
    2748:	db05      	blt.n	2756 <__gedf2+0xaa>
    274a:	455e      	cmp	r6, fp
    274c:	d8df      	bhi.n	270e <__gedf2+0x62>
    274e:	d008      	beq.n	2762 <__gedf2+0xb6>
    2750:	2000      	movs	r0, #0
    2752:	455e      	cmp	r6, fp
    2754:	d2de      	bcs.n	2714 <__gedf2+0x68>
    2756:	4248      	negs	r0, r1
    2758:	4148      	adcs	r0, r1
    275a:	2301      	movs	r3, #1
    275c:	4240      	negs	r0, r0
    275e:	4318      	orrs	r0, r3
    2760:	e7d8      	b.n	2714 <__gedf2+0x68>
    2762:	45c4      	cmp	ip, r8
    2764:	d8d3      	bhi.n	270e <__gedf2+0x62>
    2766:	2000      	movs	r0, #0
    2768:	45c4      	cmp	ip, r8
    276a:	d3f4      	bcc.n	2756 <__gedf2+0xaa>
    276c:	e7d2      	b.n	2714 <__gedf2+0x68>
    276e:	46c0      	nop			; (mov r8, r8)
    2770:	000007ff 	.word	0x000007ff

00002774 <__ledf2>:
    2774:	b5f0      	push	{r4, r5, r6, r7, lr}
    2776:	465f      	mov	r7, fp
    2778:	464d      	mov	r5, r9
    277a:	4644      	mov	r4, r8
    277c:	4656      	mov	r6, sl
    277e:	b4f0      	push	{r4, r5, r6, r7}
    2780:	031c      	lsls	r4, r3, #12
    2782:	0b24      	lsrs	r4, r4, #12
    2784:	46a4      	mov	ip, r4
    2786:	4c2f      	ldr	r4, [pc, #188]	; (2844 <__ledf2+0xd0>)
    2788:	030f      	lsls	r7, r1, #12
    278a:	004d      	lsls	r5, r1, #1
    278c:	005e      	lsls	r6, r3, #1
    278e:	0fc9      	lsrs	r1, r1, #31
    2790:	4680      	mov	r8, r0
    2792:	0b3f      	lsrs	r7, r7, #12
    2794:	0d6d      	lsrs	r5, r5, #21
    2796:	468b      	mov	fp, r1
    2798:	4691      	mov	r9, r2
    279a:	0d76      	lsrs	r6, r6, #21
    279c:	0fdb      	lsrs	r3, r3, #31
    279e:	42a5      	cmp	r5, r4
    27a0:	d020      	beq.n	27e4 <__ledf2+0x70>
    27a2:	4c28      	ldr	r4, [pc, #160]	; (2844 <__ledf2+0xd0>)
    27a4:	42a6      	cmp	r6, r4
    27a6:	d022      	beq.n	27ee <__ledf2+0x7a>
    27a8:	2d00      	cmp	r5, #0
    27aa:	d112      	bne.n	27d2 <__ledf2+0x5e>
    27ac:	4338      	orrs	r0, r7
    27ae:	4244      	negs	r4, r0
    27b0:	4144      	adcs	r4, r0
    27b2:	2e00      	cmp	r6, #0
    27b4:	d020      	beq.n	27f8 <__ledf2+0x84>
    27b6:	2c00      	cmp	r4, #0
    27b8:	d00d      	beq.n	27d6 <__ledf2+0x62>
    27ba:	425c      	negs	r4, r3
    27bc:	4163      	adcs	r3, r4
    27be:	2401      	movs	r4, #1
    27c0:	425b      	negs	r3, r3
    27c2:	431c      	orrs	r4, r3
    27c4:	0020      	movs	r0, r4
    27c6:	bc3c      	pop	{r2, r3, r4, r5}
    27c8:	4690      	mov	r8, r2
    27ca:	4699      	mov	r9, r3
    27cc:	46a2      	mov	sl, r4
    27ce:	46ab      	mov	fp, r5
    27d0:	bdf0      	pop	{r4, r5, r6, r7, pc}
    27d2:	2e00      	cmp	r6, #0
    27d4:	d017      	beq.n	2806 <__ledf2+0x92>
    27d6:	455b      	cmp	r3, fp
    27d8:	d019      	beq.n	280e <__ledf2+0x9a>
    27da:	465b      	mov	r3, fp
    27dc:	425c      	negs	r4, r3
    27de:	2301      	movs	r3, #1
    27e0:	431c      	orrs	r4, r3
    27e2:	e7ef      	b.n	27c4 <__ledf2+0x50>
    27e4:	0039      	movs	r1, r7
    27e6:	2402      	movs	r4, #2
    27e8:	4301      	orrs	r1, r0
    27ea:	d1eb      	bne.n	27c4 <__ledf2+0x50>
    27ec:	e7d9      	b.n	27a2 <__ledf2+0x2e>
    27ee:	4661      	mov	r1, ip
    27f0:	2402      	movs	r4, #2
    27f2:	4311      	orrs	r1, r2
    27f4:	d1e6      	bne.n	27c4 <__ledf2+0x50>
    27f6:	e7d7      	b.n	27a8 <__ledf2+0x34>
    27f8:	4661      	mov	r1, ip
    27fa:	430a      	orrs	r2, r1
    27fc:	d1db      	bne.n	27b6 <__ledf2+0x42>
    27fe:	2400      	movs	r4, #0
    2800:	2800      	cmp	r0, #0
    2802:	d0df      	beq.n	27c4 <__ledf2+0x50>
    2804:	e7e9      	b.n	27da <__ledf2+0x66>
    2806:	4661      	mov	r1, ip
    2808:	430a      	orrs	r2, r1
    280a:	d1e4      	bne.n	27d6 <__ledf2+0x62>
    280c:	e7e5      	b.n	27da <__ledf2+0x66>
    280e:	42b5      	cmp	r5, r6
    2810:	dd03      	ble.n	281a <__ledf2+0xa6>
    2812:	2201      	movs	r2, #1
    2814:	425c      	negs	r4, r3
    2816:	4314      	orrs	r4, r2
    2818:	e7d4      	b.n	27c4 <__ledf2+0x50>
    281a:	42b5      	cmp	r5, r6
    281c:	dbcd      	blt.n	27ba <__ledf2+0x46>
    281e:	4567      	cmp	r7, ip
    2820:	d8db      	bhi.n	27da <__ledf2+0x66>
    2822:	d009      	beq.n	2838 <__ledf2+0xc4>
    2824:	2400      	movs	r4, #0
    2826:	4567      	cmp	r7, ip
    2828:	d2cc      	bcs.n	27c4 <__ledf2+0x50>
    282a:	4659      	mov	r1, fp
    282c:	424c      	negs	r4, r1
    282e:	4161      	adcs	r1, r4
    2830:	2401      	movs	r4, #1
    2832:	4249      	negs	r1, r1
    2834:	430c      	orrs	r4, r1
    2836:	e7c5      	b.n	27c4 <__ledf2+0x50>
    2838:	45c8      	cmp	r8, r9
    283a:	d8ce      	bhi.n	27da <__ledf2+0x66>
    283c:	2400      	movs	r4, #0
    283e:	45c8      	cmp	r8, r9
    2840:	d3f3      	bcc.n	282a <__ledf2+0xb6>
    2842:	e7bf      	b.n	27c4 <__ledf2+0x50>
    2844:	000007ff 	.word	0x000007ff

00002848 <__aeabi_dmul>:
    2848:	b5f0      	push	{r4, r5, r6, r7, lr}
    284a:	465f      	mov	r7, fp
    284c:	4656      	mov	r6, sl
    284e:	464d      	mov	r5, r9
    2850:	4644      	mov	r4, r8
    2852:	b4f0      	push	{r4, r5, r6, r7}
    2854:	030d      	lsls	r5, r1, #12
    2856:	4699      	mov	r9, r3
    2858:	004e      	lsls	r6, r1, #1
    285a:	0b2b      	lsrs	r3, r5, #12
    285c:	b087      	sub	sp, #28
    285e:	0007      	movs	r7, r0
    2860:	4692      	mov	sl, r2
    2862:	4680      	mov	r8, r0
    2864:	469b      	mov	fp, r3
    2866:	0d76      	lsrs	r6, r6, #21
    2868:	0fcc      	lsrs	r4, r1, #31
    286a:	2e00      	cmp	r6, #0
    286c:	d069      	beq.n	2942 <__aeabi_dmul+0xfa>
    286e:	4b6d      	ldr	r3, [pc, #436]	; (2a24 <__aeabi_dmul+0x1dc>)
    2870:	429e      	cmp	r6, r3
    2872:	d035      	beq.n	28e0 <__aeabi_dmul+0x98>
    2874:	465b      	mov	r3, fp
    2876:	2280      	movs	r2, #128	; 0x80
    2878:	00dd      	lsls	r5, r3, #3
    287a:	0412      	lsls	r2, r2, #16
    287c:	0f43      	lsrs	r3, r0, #29
    287e:	4313      	orrs	r3, r2
    2880:	432b      	orrs	r3, r5
    2882:	469b      	mov	fp, r3
    2884:	00c3      	lsls	r3, r0, #3
    2886:	4698      	mov	r8, r3
    2888:	4b67      	ldr	r3, [pc, #412]	; (2a28 <__aeabi_dmul+0x1e0>)
    288a:	2700      	movs	r7, #0
    288c:	469c      	mov	ip, r3
    288e:	2300      	movs	r3, #0
    2890:	4466      	add	r6, ip
    2892:	9301      	str	r3, [sp, #4]
    2894:	464a      	mov	r2, r9
    2896:	0315      	lsls	r5, r2, #12
    2898:	0050      	lsls	r0, r2, #1
    289a:	0fd2      	lsrs	r2, r2, #31
    289c:	4653      	mov	r3, sl
    289e:	0b2d      	lsrs	r5, r5, #12
    28a0:	0d40      	lsrs	r0, r0, #21
    28a2:	4691      	mov	r9, r2
    28a4:	d100      	bne.n	28a8 <__aeabi_dmul+0x60>
    28a6:	e076      	b.n	2996 <__aeabi_dmul+0x14e>
    28a8:	4a5e      	ldr	r2, [pc, #376]	; (2a24 <__aeabi_dmul+0x1dc>)
    28aa:	4290      	cmp	r0, r2
    28ac:	d06c      	beq.n	2988 <__aeabi_dmul+0x140>
    28ae:	2280      	movs	r2, #128	; 0x80
    28b0:	0f5b      	lsrs	r3, r3, #29
    28b2:	0412      	lsls	r2, r2, #16
    28b4:	4313      	orrs	r3, r2
    28b6:	4a5c      	ldr	r2, [pc, #368]	; (2a28 <__aeabi_dmul+0x1e0>)
    28b8:	00ed      	lsls	r5, r5, #3
    28ba:	4694      	mov	ip, r2
    28bc:	431d      	orrs	r5, r3
    28be:	4653      	mov	r3, sl
    28c0:	2200      	movs	r2, #0
    28c2:	00db      	lsls	r3, r3, #3
    28c4:	4460      	add	r0, ip
    28c6:	4649      	mov	r1, r9
    28c8:	1836      	adds	r6, r6, r0
    28ca:	1c70      	adds	r0, r6, #1
    28cc:	4061      	eors	r1, r4
    28ce:	9002      	str	r0, [sp, #8]
    28d0:	4317      	orrs	r7, r2
    28d2:	2f0f      	cmp	r7, #15
    28d4:	d900      	bls.n	28d8 <__aeabi_dmul+0x90>
    28d6:	e0af      	b.n	2a38 <__aeabi_dmul+0x1f0>
    28d8:	4854      	ldr	r0, [pc, #336]	; (2a2c <__aeabi_dmul+0x1e4>)
    28da:	00bf      	lsls	r7, r7, #2
    28dc:	59c7      	ldr	r7, [r0, r7]
    28de:	46bf      	mov	pc, r7
    28e0:	465b      	mov	r3, fp
    28e2:	431f      	orrs	r7, r3
    28e4:	d000      	beq.n	28e8 <__aeabi_dmul+0xa0>
    28e6:	e088      	b.n	29fa <__aeabi_dmul+0x1b2>
    28e8:	2300      	movs	r3, #0
    28ea:	469b      	mov	fp, r3
    28ec:	4698      	mov	r8, r3
    28ee:	3302      	adds	r3, #2
    28f0:	2708      	movs	r7, #8
    28f2:	9301      	str	r3, [sp, #4]
    28f4:	e7ce      	b.n	2894 <__aeabi_dmul+0x4c>
    28f6:	4649      	mov	r1, r9
    28f8:	2a02      	cmp	r2, #2
    28fa:	d06a      	beq.n	29d2 <__aeabi_dmul+0x18a>
    28fc:	2a03      	cmp	r2, #3
    28fe:	d100      	bne.n	2902 <__aeabi_dmul+0xba>
    2900:	e209      	b.n	2d16 <__aeabi_dmul+0x4ce>
    2902:	2a01      	cmp	r2, #1
    2904:	d000      	beq.n	2908 <__aeabi_dmul+0xc0>
    2906:	e1bb      	b.n	2c80 <__aeabi_dmul+0x438>
    2908:	4011      	ands	r1, r2
    290a:	2200      	movs	r2, #0
    290c:	2300      	movs	r3, #0
    290e:	2500      	movs	r5, #0
    2910:	4690      	mov	r8, r2
    2912:	b2cc      	uxtb	r4, r1
    2914:	2100      	movs	r1, #0
    2916:	032d      	lsls	r5, r5, #12
    2918:	0d0a      	lsrs	r2, r1, #20
    291a:	0512      	lsls	r2, r2, #20
    291c:	0b2d      	lsrs	r5, r5, #12
    291e:	4315      	orrs	r5, r2
    2920:	4a43      	ldr	r2, [pc, #268]	; (2a30 <__aeabi_dmul+0x1e8>)
    2922:	051b      	lsls	r3, r3, #20
    2924:	4015      	ands	r5, r2
    2926:	431d      	orrs	r5, r3
    2928:	006d      	lsls	r5, r5, #1
    292a:	07e4      	lsls	r4, r4, #31
    292c:	086d      	lsrs	r5, r5, #1
    292e:	4325      	orrs	r5, r4
    2930:	4640      	mov	r0, r8
    2932:	0029      	movs	r1, r5
    2934:	b007      	add	sp, #28
    2936:	bc3c      	pop	{r2, r3, r4, r5}
    2938:	4690      	mov	r8, r2
    293a:	4699      	mov	r9, r3
    293c:	46a2      	mov	sl, r4
    293e:	46ab      	mov	fp, r5
    2940:	bdf0      	pop	{r4, r5, r6, r7, pc}
    2942:	4303      	orrs	r3, r0
    2944:	d052      	beq.n	29ec <__aeabi_dmul+0x1a4>
    2946:	465b      	mov	r3, fp
    2948:	2b00      	cmp	r3, #0
    294a:	d100      	bne.n	294e <__aeabi_dmul+0x106>
    294c:	e18a      	b.n	2c64 <__aeabi_dmul+0x41c>
    294e:	4658      	mov	r0, fp
    2950:	f000 fdc0 	bl	34d4 <__clzsi2>
    2954:	0003      	movs	r3, r0
    2956:	3b0b      	subs	r3, #11
    2958:	2b1c      	cmp	r3, #28
    295a:	dd00      	ble.n	295e <__aeabi_dmul+0x116>
    295c:	e17b      	b.n	2c56 <__aeabi_dmul+0x40e>
    295e:	221d      	movs	r2, #29
    2960:	1ad3      	subs	r3, r2, r3
    2962:	003a      	movs	r2, r7
    2964:	0001      	movs	r1, r0
    2966:	465d      	mov	r5, fp
    2968:	40da      	lsrs	r2, r3
    296a:	3908      	subs	r1, #8
    296c:	408d      	lsls	r5, r1
    296e:	0013      	movs	r3, r2
    2970:	408f      	lsls	r7, r1
    2972:	432b      	orrs	r3, r5
    2974:	469b      	mov	fp, r3
    2976:	46b8      	mov	r8, r7
    2978:	4b2e      	ldr	r3, [pc, #184]	; (2a34 <__aeabi_dmul+0x1ec>)
    297a:	2700      	movs	r7, #0
    297c:	469c      	mov	ip, r3
    297e:	2300      	movs	r3, #0
    2980:	4460      	add	r0, ip
    2982:	4246      	negs	r6, r0
    2984:	9301      	str	r3, [sp, #4]
    2986:	e785      	b.n	2894 <__aeabi_dmul+0x4c>
    2988:	4652      	mov	r2, sl
    298a:	432a      	orrs	r2, r5
    298c:	d12c      	bne.n	29e8 <__aeabi_dmul+0x1a0>
    298e:	2500      	movs	r5, #0
    2990:	2300      	movs	r3, #0
    2992:	2202      	movs	r2, #2
    2994:	e797      	b.n	28c6 <__aeabi_dmul+0x7e>
    2996:	4652      	mov	r2, sl
    2998:	432a      	orrs	r2, r5
    299a:	d021      	beq.n	29e0 <__aeabi_dmul+0x198>
    299c:	2d00      	cmp	r5, #0
    299e:	d100      	bne.n	29a2 <__aeabi_dmul+0x15a>
    29a0:	e154      	b.n	2c4c <__aeabi_dmul+0x404>
    29a2:	0028      	movs	r0, r5
    29a4:	f000 fd96 	bl	34d4 <__clzsi2>
    29a8:	0003      	movs	r3, r0
    29aa:	3b0b      	subs	r3, #11
    29ac:	2b1c      	cmp	r3, #28
    29ae:	dd00      	ble.n	29b2 <__aeabi_dmul+0x16a>
    29b0:	e146      	b.n	2c40 <__aeabi_dmul+0x3f8>
    29b2:	211d      	movs	r1, #29
    29b4:	1acb      	subs	r3, r1, r3
    29b6:	4651      	mov	r1, sl
    29b8:	0002      	movs	r2, r0
    29ba:	40d9      	lsrs	r1, r3
    29bc:	4653      	mov	r3, sl
    29be:	3a08      	subs	r2, #8
    29c0:	4095      	lsls	r5, r2
    29c2:	4093      	lsls	r3, r2
    29c4:	430d      	orrs	r5, r1
    29c6:	4a1b      	ldr	r2, [pc, #108]	; (2a34 <__aeabi_dmul+0x1ec>)
    29c8:	4694      	mov	ip, r2
    29ca:	4460      	add	r0, ip
    29cc:	4240      	negs	r0, r0
    29ce:	2200      	movs	r2, #0
    29d0:	e779      	b.n	28c6 <__aeabi_dmul+0x7e>
    29d2:	2401      	movs	r4, #1
    29d4:	2200      	movs	r2, #0
    29d6:	400c      	ands	r4, r1
    29d8:	4b12      	ldr	r3, [pc, #72]	; (2a24 <__aeabi_dmul+0x1dc>)
    29da:	2500      	movs	r5, #0
    29dc:	4690      	mov	r8, r2
    29de:	e799      	b.n	2914 <__aeabi_dmul+0xcc>
    29e0:	2500      	movs	r5, #0
    29e2:	2300      	movs	r3, #0
    29e4:	2201      	movs	r2, #1
    29e6:	e76e      	b.n	28c6 <__aeabi_dmul+0x7e>
    29e8:	2203      	movs	r2, #3
    29ea:	e76c      	b.n	28c6 <__aeabi_dmul+0x7e>
    29ec:	2300      	movs	r3, #0
    29ee:	469b      	mov	fp, r3
    29f0:	4698      	mov	r8, r3
    29f2:	3301      	adds	r3, #1
    29f4:	2704      	movs	r7, #4
    29f6:	9301      	str	r3, [sp, #4]
    29f8:	e74c      	b.n	2894 <__aeabi_dmul+0x4c>
    29fa:	2303      	movs	r3, #3
    29fc:	270c      	movs	r7, #12
    29fe:	9301      	str	r3, [sp, #4]
    2a00:	e748      	b.n	2894 <__aeabi_dmul+0x4c>
    2a02:	2300      	movs	r3, #0
    2a04:	2580      	movs	r5, #128	; 0x80
    2a06:	4698      	mov	r8, r3
    2a08:	2400      	movs	r4, #0
    2a0a:	032d      	lsls	r5, r5, #12
    2a0c:	4b05      	ldr	r3, [pc, #20]	; (2a24 <__aeabi_dmul+0x1dc>)
    2a0e:	e781      	b.n	2914 <__aeabi_dmul+0xcc>
    2a10:	465d      	mov	r5, fp
    2a12:	4643      	mov	r3, r8
    2a14:	9a01      	ldr	r2, [sp, #4]
    2a16:	e76f      	b.n	28f8 <__aeabi_dmul+0xb0>
    2a18:	465d      	mov	r5, fp
    2a1a:	4643      	mov	r3, r8
    2a1c:	0021      	movs	r1, r4
    2a1e:	9a01      	ldr	r2, [sp, #4]
    2a20:	e76a      	b.n	28f8 <__aeabi_dmul+0xb0>
    2a22:	46c0      	nop			; (mov r8, r8)
    2a24:	000007ff 	.word	0x000007ff
    2a28:	fffffc01 	.word	0xfffffc01
    2a2c:	00003778 	.word	0x00003778
    2a30:	800fffff 	.word	0x800fffff
    2a34:	000003f3 	.word	0x000003f3
    2a38:	4642      	mov	r2, r8
    2a3a:	0c12      	lsrs	r2, r2, #16
    2a3c:	4691      	mov	r9, r2
    2a3e:	0c1a      	lsrs	r2, r3, #16
    2a40:	4694      	mov	ip, r2
    2a42:	4642      	mov	r2, r8
    2a44:	0417      	lsls	r7, r2, #16
    2a46:	464a      	mov	r2, r9
    2a48:	041b      	lsls	r3, r3, #16
    2a4a:	0c1b      	lsrs	r3, r3, #16
    2a4c:	435a      	muls	r2, r3
    2a4e:	4660      	mov	r0, ip
    2a50:	4690      	mov	r8, r2
    2a52:	464a      	mov	r2, r9
    2a54:	4342      	muls	r2, r0
    2a56:	0010      	movs	r0, r2
    2a58:	9203      	str	r2, [sp, #12]
    2a5a:	4662      	mov	r2, ip
    2a5c:	001c      	movs	r4, r3
    2a5e:	0c3f      	lsrs	r7, r7, #16
    2a60:	437a      	muls	r2, r7
    2a62:	437c      	muls	r4, r7
    2a64:	4442      	add	r2, r8
    2a66:	9201      	str	r2, [sp, #4]
    2a68:	0c22      	lsrs	r2, r4, #16
    2a6a:	4692      	mov	sl, r2
    2a6c:	9a01      	ldr	r2, [sp, #4]
    2a6e:	4452      	add	r2, sl
    2a70:	4590      	cmp	r8, r2
    2a72:	d906      	bls.n	2a82 <__aeabi_dmul+0x23a>
    2a74:	4682      	mov	sl, r0
    2a76:	2080      	movs	r0, #128	; 0x80
    2a78:	0240      	lsls	r0, r0, #9
    2a7a:	4680      	mov	r8, r0
    2a7c:	44c2      	add	sl, r8
    2a7e:	4650      	mov	r0, sl
    2a80:	9003      	str	r0, [sp, #12]
    2a82:	0c10      	lsrs	r0, r2, #16
    2a84:	9004      	str	r0, [sp, #16]
    2a86:	4648      	mov	r0, r9
    2a88:	0424      	lsls	r4, r4, #16
    2a8a:	0c24      	lsrs	r4, r4, #16
    2a8c:	0412      	lsls	r2, r2, #16
    2a8e:	1912      	adds	r2, r2, r4
    2a90:	9205      	str	r2, [sp, #20]
    2a92:	0c2a      	lsrs	r2, r5, #16
    2a94:	042d      	lsls	r5, r5, #16
    2a96:	0c2d      	lsrs	r5, r5, #16
    2a98:	4368      	muls	r0, r5
    2a9a:	002c      	movs	r4, r5
    2a9c:	4682      	mov	sl, r0
    2a9e:	4648      	mov	r0, r9
    2aa0:	437c      	muls	r4, r7
    2aa2:	4350      	muls	r0, r2
    2aa4:	4681      	mov	r9, r0
    2aa6:	0c20      	lsrs	r0, r4, #16
    2aa8:	4680      	mov	r8, r0
    2aaa:	4357      	muls	r7, r2
    2aac:	4457      	add	r7, sl
    2aae:	4447      	add	r7, r8
    2ab0:	45ba      	cmp	sl, r7
    2ab2:	d903      	bls.n	2abc <__aeabi_dmul+0x274>
    2ab4:	2080      	movs	r0, #128	; 0x80
    2ab6:	0240      	lsls	r0, r0, #9
    2ab8:	4680      	mov	r8, r0
    2aba:	44c1      	add	r9, r8
    2abc:	0c38      	lsrs	r0, r7, #16
    2abe:	043f      	lsls	r7, r7, #16
    2ac0:	46b8      	mov	r8, r7
    2ac2:	4448      	add	r0, r9
    2ac4:	0424      	lsls	r4, r4, #16
    2ac6:	0c24      	lsrs	r4, r4, #16
    2ac8:	9001      	str	r0, [sp, #4]
    2aca:	9804      	ldr	r0, [sp, #16]
    2acc:	44a0      	add	r8, r4
    2ace:	4440      	add	r0, r8
    2ad0:	9004      	str	r0, [sp, #16]
    2ad2:	4658      	mov	r0, fp
    2ad4:	0c00      	lsrs	r0, r0, #16
    2ad6:	4681      	mov	r9, r0
    2ad8:	4658      	mov	r0, fp
    2ada:	0404      	lsls	r4, r0, #16
    2adc:	0c20      	lsrs	r0, r4, #16
    2ade:	4682      	mov	sl, r0
    2ae0:	0007      	movs	r7, r0
    2ae2:	4648      	mov	r0, r9
    2ae4:	435f      	muls	r7, r3
    2ae6:	464c      	mov	r4, r9
    2ae8:	4343      	muls	r3, r0
    2aea:	4660      	mov	r0, ip
    2aec:	4360      	muls	r0, r4
    2aee:	4664      	mov	r4, ip
    2af0:	4683      	mov	fp, r0
    2af2:	4650      	mov	r0, sl
    2af4:	4344      	muls	r4, r0
    2af6:	0c38      	lsrs	r0, r7, #16
    2af8:	4684      	mov	ip, r0
    2afa:	18e4      	adds	r4, r4, r3
    2afc:	4464      	add	r4, ip
    2afe:	42a3      	cmp	r3, r4
    2b00:	d903      	bls.n	2b0a <__aeabi_dmul+0x2c2>
    2b02:	2380      	movs	r3, #128	; 0x80
    2b04:	025b      	lsls	r3, r3, #9
    2b06:	469c      	mov	ip, r3
    2b08:	44e3      	add	fp, ip
    2b0a:	4648      	mov	r0, r9
    2b0c:	043f      	lsls	r7, r7, #16
    2b0e:	0c23      	lsrs	r3, r4, #16
    2b10:	0c3f      	lsrs	r7, r7, #16
    2b12:	0424      	lsls	r4, r4, #16
    2b14:	19e4      	adds	r4, r4, r7
    2b16:	4657      	mov	r7, sl
    2b18:	4368      	muls	r0, r5
    2b1a:	436f      	muls	r7, r5
    2b1c:	4684      	mov	ip, r0
    2b1e:	464d      	mov	r5, r9
    2b20:	4650      	mov	r0, sl
    2b22:	4355      	muls	r5, r2
    2b24:	4342      	muls	r2, r0
    2b26:	0c38      	lsrs	r0, r7, #16
    2b28:	4681      	mov	r9, r0
    2b2a:	4462      	add	r2, ip
    2b2c:	444a      	add	r2, r9
    2b2e:	445b      	add	r3, fp
    2b30:	4594      	cmp	ip, r2
    2b32:	d903      	bls.n	2b3c <__aeabi_dmul+0x2f4>
    2b34:	2080      	movs	r0, #128	; 0x80
    2b36:	0240      	lsls	r0, r0, #9
    2b38:	4684      	mov	ip, r0
    2b3a:	4465      	add	r5, ip
    2b3c:	9803      	ldr	r0, [sp, #12]
    2b3e:	043f      	lsls	r7, r7, #16
    2b40:	4683      	mov	fp, r0
    2b42:	9804      	ldr	r0, [sp, #16]
    2b44:	0c3f      	lsrs	r7, r7, #16
    2b46:	4684      	mov	ip, r0
    2b48:	44e3      	add	fp, ip
    2b4a:	45c3      	cmp	fp, r8
    2b4c:	4180      	sbcs	r0, r0
    2b4e:	4240      	negs	r0, r0
    2b50:	4682      	mov	sl, r0
    2b52:	0410      	lsls	r0, r2, #16
    2b54:	4684      	mov	ip, r0
    2b56:	9801      	ldr	r0, [sp, #4]
    2b58:	4467      	add	r7, ip
    2b5a:	4684      	mov	ip, r0
    2b5c:	4467      	add	r7, ip
    2b5e:	44a3      	add	fp, r4
    2b60:	46bc      	mov	ip, r7
    2b62:	45a3      	cmp	fp, r4
    2b64:	41a4      	sbcs	r4, r4
    2b66:	4699      	mov	r9, r3
    2b68:	44d4      	add	ip, sl
    2b6a:	4264      	negs	r4, r4
    2b6c:	4287      	cmp	r7, r0
    2b6e:	41bf      	sbcs	r7, r7
    2b70:	45d4      	cmp	ip, sl
    2b72:	4180      	sbcs	r0, r0
    2b74:	44e1      	add	r9, ip
    2b76:	46a0      	mov	r8, r4
    2b78:	4599      	cmp	r9, r3
    2b7a:	419b      	sbcs	r3, r3
    2b7c:	427f      	negs	r7, r7
    2b7e:	4240      	negs	r0, r0
    2b80:	44c8      	add	r8, r9
    2b82:	4307      	orrs	r7, r0
    2b84:	0c12      	lsrs	r2, r2, #16
    2b86:	18ba      	adds	r2, r7, r2
    2b88:	45a0      	cmp	r8, r4
    2b8a:	41a4      	sbcs	r4, r4
    2b8c:	425f      	negs	r7, r3
    2b8e:	003b      	movs	r3, r7
    2b90:	4264      	negs	r4, r4
    2b92:	4323      	orrs	r3, r4
    2b94:	18d7      	adds	r7, r2, r3
    2b96:	4643      	mov	r3, r8
    2b98:	197d      	adds	r5, r7, r5
    2b9a:	0ddb      	lsrs	r3, r3, #23
    2b9c:	026d      	lsls	r5, r5, #9
    2b9e:	431d      	orrs	r5, r3
    2ba0:	465b      	mov	r3, fp
    2ba2:	025a      	lsls	r2, r3, #9
    2ba4:	9b05      	ldr	r3, [sp, #20]
    2ba6:	431a      	orrs	r2, r3
    2ba8:	1e53      	subs	r3, r2, #1
    2baa:	419a      	sbcs	r2, r3
    2bac:	465b      	mov	r3, fp
    2bae:	0ddb      	lsrs	r3, r3, #23
    2bb0:	431a      	orrs	r2, r3
    2bb2:	4643      	mov	r3, r8
    2bb4:	025b      	lsls	r3, r3, #9
    2bb6:	4313      	orrs	r3, r2
    2bb8:	01ea      	lsls	r2, r5, #7
    2bba:	d507      	bpl.n	2bcc <__aeabi_dmul+0x384>
    2bbc:	2201      	movs	r2, #1
    2bbe:	085c      	lsrs	r4, r3, #1
    2bc0:	4013      	ands	r3, r2
    2bc2:	4323      	orrs	r3, r4
    2bc4:	07ea      	lsls	r2, r5, #31
    2bc6:	9e02      	ldr	r6, [sp, #8]
    2bc8:	4313      	orrs	r3, r2
    2bca:	086d      	lsrs	r5, r5, #1
    2bcc:	4a57      	ldr	r2, [pc, #348]	; (2d2c <__aeabi_dmul+0x4e4>)
    2bce:	18b2      	adds	r2, r6, r2
    2bd0:	2a00      	cmp	r2, #0
    2bd2:	dd4b      	ble.n	2c6c <__aeabi_dmul+0x424>
    2bd4:	0758      	lsls	r0, r3, #29
    2bd6:	d009      	beq.n	2bec <__aeabi_dmul+0x3a4>
    2bd8:	200f      	movs	r0, #15
    2bda:	4018      	ands	r0, r3
    2bdc:	2804      	cmp	r0, #4
    2bde:	d005      	beq.n	2bec <__aeabi_dmul+0x3a4>
    2be0:	1d18      	adds	r0, r3, #4
    2be2:	4298      	cmp	r0, r3
    2be4:	419b      	sbcs	r3, r3
    2be6:	425b      	negs	r3, r3
    2be8:	18ed      	adds	r5, r5, r3
    2bea:	0003      	movs	r3, r0
    2bec:	01e8      	lsls	r0, r5, #7
    2bee:	d504      	bpl.n	2bfa <__aeabi_dmul+0x3b2>
    2bf0:	4a4f      	ldr	r2, [pc, #316]	; (2d30 <__aeabi_dmul+0x4e8>)
    2bf2:	4015      	ands	r5, r2
    2bf4:	2280      	movs	r2, #128	; 0x80
    2bf6:	00d2      	lsls	r2, r2, #3
    2bf8:	18b2      	adds	r2, r6, r2
    2bfa:	484e      	ldr	r0, [pc, #312]	; (2d34 <__aeabi_dmul+0x4ec>)
    2bfc:	4282      	cmp	r2, r0
    2bfe:	dd00      	ble.n	2c02 <__aeabi_dmul+0x3ba>
    2c00:	e6e7      	b.n	29d2 <__aeabi_dmul+0x18a>
    2c02:	2401      	movs	r4, #1
    2c04:	08db      	lsrs	r3, r3, #3
    2c06:	0768      	lsls	r0, r5, #29
    2c08:	4318      	orrs	r0, r3
    2c0a:	026d      	lsls	r5, r5, #9
    2c0c:	0553      	lsls	r3, r2, #21
    2c0e:	4680      	mov	r8, r0
    2c10:	0b2d      	lsrs	r5, r5, #12
    2c12:	0d5b      	lsrs	r3, r3, #21
    2c14:	400c      	ands	r4, r1
    2c16:	e67d      	b.n	2914 <__aeabi_dmul+0xcc>
    2c18:	2280      	movs	r2, #128	; 0x80
    2c1a:	4659      	mov	r1, fp
    2c1c:	0312      	lsls	r2, r2, #12
    2c1e:	4211      	tst	r1, r2
    2c20:	d008      	beq.n	2c34 <__aeabi_dmul+0x3ec>
    2c22:	4215      	tst	r5, r2
    2c24:	d106      	bne.n	2c34 <__aeabi_dmul+0x3ec>
    2c26:	4315      	orrs	r5, r2
    2c28:	032d      	lsls	r5, r5, #12
    2c2a:	4698      	mov	r8, r3
    2c2c:	0b2d      	lsrs	r5, r5, #12
    2c2e:	464c      	mov	r4, r9
    2c30:	4b41      	ldr	r3, [pc, #260]	; (2d38 <__aeabi_dmul+0x4f0>)
    2c32:	e66f      	b.n	2914 <__aeabi_dmul+0xcc>
    2c34:	465d      	mov	r5, fp
    2c36:	4315      	orrs	r5, r2
    2c38:	032d      	lsls	r5, r5, #12
    2c3a:	0b2d      	lsrs	r5, r5, #12
    2c3c:	4b3e      	ldr	r3, [pc, #248]	; (2d38 <__aeabi_dmul+0x4f0>)
    2c3e:	e669      	b.n	2914 <__aeabi_dmul+0xcc>
    2c40:	0003      	movs	r3, r0
    2c42:	4655      	mov	r5, sl
    2c44:	3b28      	subs	r3, #40	; 0x28
    2c46:	409d      	lsls	r5, r3
    2c48:	2300      	movs	r3, #0
    2c4a:	e6bc      	b.n	29c6 <__aeabi_dmul+0x17e>
    2c4c:	4650      	mov	r0, sl
    2c4e:	f000 fc41 	bl	34d4 <__clzsi2>
    2c52:	3020      	adds	r0, #32
    2c54:	e6a8      	b.n	29a8 <__aeabi_dmul+0x160>
    2c56:	0003      	movs	r3, r0
    2c58:	3b28      	subs	r3, #40	; 0x28
    2c5a:	409f      	lsls	r7, r3
    2c5c:	2300      	movs	r3, #0
    2c5e:	46bb      	mov	fp, r7
    2c60:	4698      	mov	r8, r3
    2c62:	e689      	b.n	2978 <__aeabi_dmul+0x130>
    2c64:	f000 fc36 	bl	34d4 <__clzsi2>
    2c68:	3020      	adds	r0, #32
    2c6a:	e673      	b.n	2954 <__aeabi_dmul+0x10c>
    2c6c:	2401      	movs	r4, #1
    2c6e:	1aa6      	subs	r6, r4, r2
    2c70:	2e38      	cmp	r6, #56	; 0x38
    2c72:	dd07      	ble.n	2c84 <__aeabi_dmul+0x43c>
    2c74:	2200      	movs	r2, #0
    2c76:	400c      	ands	r4, r1
    2c78:	2300      	movs	r3, #0
    2c7a:	2500      	movs	r5, #0
    2c7c:	4690      	mov	r8, r2
    2c7e:	e649      	b.n	2914 <__aeabi_dmul+0xcc>
    2c80:	9e02      	ldr	r6, [sp, #8]
    2c82:	e7a3      	b.n	2bcc <__aeabi_dmul+0x384>
    2c84:	2e1f      	cmp	r6, #31
    2c86:	dc20      	bgt.n	2cca <__aeabi_dmul+0x482>
    2c88:	2220      	movs	r2, #32
    2c8a:	002c      	movs	r4, r5
    2c8c:	0018      	movs	r0, r3
    2c8e:	1b92      	subs	r2, r2, r6
    2c90:	40f0      	lsrs	r0, r6
    2c92:	4094      	lsls	r4, r2
    2c94:	4093      	lsls	r3, r2
    2c96:	4304      	orrs	r4, r0
    2c98:	1e58      	subs	r0, r3, #1
    2c9a:	4183      	sbcs	r3, r0
    2c9c:	431c      	orrs	r4, r3
    2c9e:	40f5      	lsrs	r5, r6
    2ca0:	0763      	lsls	r3, r4, #29
    2ca2:	d009      	beq.n	2cb8 <__aeabi_dmul+0x470>
    2ca4:	230f      	movs	r3, #15
    2ca6:	4023      	ands	r3, r4
    2ca8:	2b04      	cmp	r3, #4
    2caa:	d005      	beq.n	2cb8 <__aeabi_dmul+0x470>
    2cac:	0023      	movs	r3, r4
    2cae:	1d1c      	adds	r4, r3, #4
    2cb0:	429c      	cmp	r4, r3
    2cb2:	4192      	sbcs	r2, r2
    2cb4:	4252      	negs	r2, r2
    2cb6:	18ad      	adds	r5, r5, r2
    2cb8:	022b      	lsls	r3, r5, #8
    2cba:	d51f      	bpl.n	2cfc <__aeabi_dmul+0x4b4>
    2cbc:	2401      	movs	r4, #1
    2cbe:	2200      	movs	r2, #0
    2cc0:	400c      	ands	r4, r1
    2cc2:	2301      	movs	r3, #1
    2cc4:	2500      	movs	r5, #0
    2cc6:	4690      	mov	r8, r2
    2cc8:	e624      	b.n	2914 <__aeabi_dmul+0xcc>
    2cca:	201f      	movs	r0, #31
    2ccc:	002c      	movs	r4, r5
    2cce:	4240      	negs	r0, r0
    2cd0:	1a82      	subs	r2, r0, r2
    2cd2:	40d4      	lsrs	r4, r2
    2cd4:	2e20      	cmp	r6, #32
    2cd6:	d01c      	beq.n	2d12 <__aeabi_dmul+0x4ca>
    2cd8:	2240      	movs	r2, #64	; 0x40
    2cda:	1b96      	subs	r6, r2, r6
    2cdc:	40b5      	lsls	r5, r6
    2cde:	432b      	orrs	r3, r5
    2ce0:	1e58      	subs	r0, r3, #1
    2ce2:	4183      	sbcs	r3, r0
    2ce4:	2007      	movs	r0, #7
    2ce6:	4323      	orrs	r3, r4
    2ce8:	4018      	ands	r0, r3
    2cea:	2500      	movs	r5, #0
    2cec:	2800      	cmp	r0, #0
    2cee:	d009      	beq.n	2d04 <__aeabi_dmul+0x4bc>
    2cf0:	220f      	movs	r2, #15
    2cf2:	2500      	movs	r5, #0
    2cf4:	401a      	ands	r2, r3
    2cf6:	001c      	movs	r4, r3
    2cf8:	2a04      	cmp	r2, #4
    2cfa:	d1d8      	bne.n	2cae <__aeabi_dmul+0x466>
    2cfc:	0023      	movs	r3, r4
    2cfe:	0768      	lsls	r0, r5, #29
    2d00:	026d      	lsls	r5, r5, #9
    2d02:	0b2d      	lsrs	r5, r5, #12
    2d04:	2401      	movs	r4, #1
    2d06:	08db      	lsrs	r3, r3, #3
    2d08:	4303      	orrs	r3, r0
    2d0a:	4698      	mov	r8, r3
    2d0c:	400c      	ands	r4, r1
    2d0e:	2300      	movs	r3, #0
    2d10:	e600      	b.n	2914 <__aeabi_dmul+0xcc>
    2d12:	2500      	movs	r5, #0
    2d14:	e7e3      	b.n	2cde <__aeabi_dmul+0x496>
    2d16:	2280      	movs	r2, #128	; 0x80
    2d18:	2401      	movs	r4, #1
    2d1a:	0312      	lsls	r2, r2, #12
    2d1c:	4315      	orrs	r5, r2
    2d1e:	032d      	lsls	r5, r5, #12
    2d20:	4698      	mov	r8, r3
    2d22:	0b2d      	lsrs	r5, r5, #12
    2d24:	400c      	ands	r4, r1
    2d26:	4b04      	ldr	r3, [pc, #16]	; (2d38 <__aeabi_dmul+0x4f0>)
    2d28:	e5f4      	b.n	2914 <__aeabi_dmul+0xcc>
    2d2a:	46c0      	nop			; (mov r8, r8)
    2d2c:	000003ff 	.word	0x000003ff
    2d30:	feffffff 	.word	0xfeffffff
    2d34:	000007fe 	.word	0x000007fe
    2d38:	000007ff 	.word	0x000007ff

00002d3c <__aeabi_dsub>:
    2d3c:	b5f0      	push	{r4, r5, r6, r7, lr}
    2d3e:	4657      	mov	r7, sl
    2d40:	464e      	mov	r6, r9
    2d42:	4645      	mov	r5, r8
    2d44:	b4e0      	push	{r5, r6, r7}
    2d46:	000e      	movs	r6, r1
    2d48:	0011      	movs	r1, r2
    2d4a:	0ff2      	lsrs	r2, r6, #31
    2d4c:	4692      	mov	sl, r2
    2d4e:	00c5      	lsls	r5, r0, #3
    2d50:	0f42      	lsrs	r2, r0, #29
    2d52:	0318      	lsls	r0, r3, #12
    2d54:	0337      	lsls	r7, r6, #12
    2d56:	0074      	lsls	r4, r6, #1
    2d58:	0a40      	lsrs	r0, r0, #9
    2d5a:	0f4e      	lsrs	r6, r1, #29
    2d5c:	0a7f      	lsrs	r7, r7, #9
    2d5e:	4330      	orrs	r0, r6
    2d60:	4ecf      	ldr	r6, [pc, #828]	; (30a0 <__aeabi_dsub+0x364>)
    2d62:	4317      	orrs	r7, r2
    2d64:	005a      	lsls	r2, r3, #1
    2d66:	0d64      	lsrs	r4, r4, #21
    2d68:	0d52      	lsrs	r2, r2, #21
    2d6a:	0fdb      	lsrs	r3, r3, #31
    2d6c:	00c9      	lsls	r1, r1, #3
    2d6e:	42b2      	cmp	r2, r6
    2d70:	d100      	bne.n	2d74 <__aeabi_dsub+0x38>
    2d72:	e0e5      	b.n	2f40 <__aeabi_dsub+0x204>
    2d74:	2601      	movs	r6, #1
    2d76:	4073      	eors	r3, r6
    2d78:	1aa6      	subs	r6, r4, r2
    2d7a:	46b4      	mov	ip, r6
    2d7c:	4553      	cmp	r3, sl
    2d7e:	d100      	bne.n	2d82 <__aeabi_dsub+0x46>
    2d80:	e0af      	b.n	2ee2 <__aeabi_dsub+0x1a6>
    2d82:	2e00      	cmp	r6, #0
    2d84:	dc00      	bgt.n	2d88 <__aeabi_dsub+0x4c>
    2d86:	e10d      	b.n	2fa4 <__aeabi_dsub+0x268>
    2d88:	2a00      	cmp	r2, #0
    2d8a:	d13a      	bne.n	2e02 <__aeabi_dsub+0xc6>
    2d8c:	0003      	movs	r3, r0
    2d8e:	430b      	orrs	r3, r1
    2d90:	d000      	beq.n	2d94 <__aeabi_dsub+0x58>
    2d92:	e0e4      	b.n	2f5e <__aeabi_dsub+0x222>
    2d94:	076b      	lsls	r3, r5, #29
    2d96:	d009      	beq.n	2dac <__aeabi_dsub+0x70>
    2d98:	230f      	movs	r3, #15
    2d9a:	402b      	ands	r3, r5
    2d9c:	2b04      	cmp	r3, #4
    2d9e:	d005      	beq.n	2dac <__aeabi_dsub+0x70>
    2da0:	1d2b      	adds	r3, r5, #4
    2da2:	42ab      	cmp	r3, r5
    2da4:	41ad      	sbcs	r5, r5
    2da6:	426d      	negs	r5, r5
    2da8:	197f      	adds	r7, r7, r5
    2daa:	001d      	movs	r5, r3
    2dac:	023b      	lsls	r3, r7, #8
    2dae:	d400      	bmi.n	2db2 <__aeabi_dsub+0x76>
    2db0:	e088      	b.n	2ec4 <__aeabi_dsub+0x188>
    2db2:	4bbb      	ldr	r3, [pc, #748]	; (30a0 <__aeabi_dsub+0x364>)
    2db4:	3401      	adds	r4, #1
    2db6:	429c      	cmp	r4, r3
    2db8:	d100      	bne.n	2dbc <__aeabi_dsub+0x80>
    2dba:	e110      	b.n	2fde <__aeabi_dsub+0x2a2>
    2dbc:	003a      	movs	r2, r7
    2dbe:	4bb9      	ldr	r3, [pc, #740]	; (30a4 <__aeabi_dsub+0x368>)
    2dc0:	4651      	mov	r1, sl
    2dc2:	401a      	ands	r2, r3
    2dc4:	2301      	movs	r3, #1
    2dc6:	0750      	lsls	r0, r2, #29
    2dc8:	08ed      	lsrs	r5, r5, #3
    2dca:	0252      	lsls	r2, r2, #9
    2dcc:	0564      	lsls	r4, r4, #21
    2dce:	4305      	orrs	r5, r0
    2dd0:	0b12      	lsrs	r2, r2, #12
    2dd2:	0d64      	lsrs	r4, r4, #21
    2dd4:	400b      	ands	r3, r1
    2dd6:	2100      	movs	r1, #0
    2dd8:	0028      	movs	r0, r5
    2dda:	0312      	lsls	r2, r2, #12
    2ddc:	0d0d      	lsrs	r5, r1, #20
    2dde:	0b12      	lsrs	r2, r2, #12
    2de0:	0564      	lsls	r4, r4, #21
    2de2:	052d      	lsls	r5, r5, #20
    2de4:	4315      	orrs	r5, r2
    2de6:	0862      	lsrs	r2, r4, #1
    2de8:	4caf      	ldr	r4, [pc, #700]	; (30a8 <__aeabi_dsub+0x36c>)
    2dea:	07db      	lsls	r3, r3, #31
    2dec:	402c      	ands	r4, r5
    2dee:	4314      	orrs	r4, r2
    2df0:	0064      	lsls	r4, r4, #1
    2df2:	0864      	lsrs	r4, r4, #1
    2df4:	431c      	orrs	r4, r3
    2df6:	0021      	movs	r1, r4
    2df8:	bc1c      	pop	{r2, r3, r4}
    2dfa:	4690      	mov	r8, r2
    2dfc:	4699      	mov	r9, r3
    2dfe:	46a2      	mov	sl, r4
    2e00:	bdf0      	pop	{r4, r5, r6, r7, pc}
    2e02:	4ba7      	ldr	r3, [pc, #668]	; (30a0 <__aeabi_dsub+0x364>)
    2e04:	429c      	cmp	r4, r3
    2e06:	d0c5      	beq.n	2d94 <__aeabi_dsub+0x58>
    2e08:	2380      	movs	r3, #128	; 0x80
    2e0a:	041b      	lsls	r3, r3, #16
    2e0c:	4318      	orrs	r0, r3
    2e0e:	4663      	mov	r3, ip
    2e10:	2b38      	cmp	r3, #56	; 0x38
    2e12:	dd00      	ble.n	2e16 <__aeabi_dsub+0xda>
    2e14:	e0fd      	b.n	3012 <__aeabi_dsub+0x2d6>
    2e16:	2b1f      	cmp	r3, #31
    2e18:	dd00      	ble.n	2e1c <__aeabi_dsub+0xe0>
    2e1a:	e130      	b.n	307e <__aeabi_dsub+0x342>
    2e1c:	4662      	mov	r2, ip
    2e1e:	2320      	movs	r3, #32
    2e20:	1a9b      	subs	r3, r3, r2
    2e22:	0002      	movs	r2, r0
    2e24:	409a      	lsls	r2, r3
    2e26:	4666      	mov	r6, ip
    2e28:	4690      	mov	r8, r2
    2e2a:	000a      	movs	r2, r1
    2e2c:	4099      	lsls	r1, r3
    2e2e:	40f2      	lsrs	r2, r6
    2e30:	4646      	mov	r6, r8
    2e32:	1e4b      	subs	r3, r1, #1
    2e34:	4199      	sbcs	r1, r3
    2e36:	4332      	orrs	r2, r6
    2e38:	4311      	orrs	r1, r2
    2e3a:	4663      	mov	r3, ip
    2e3c:	0002      	movs	r2, r0
    2e3e:	40da      	lsrs	r2, r3
    2e40:	1a69      	subs	r1, r5, r1
    2e42:	428d      	cmp	r5, r1
    2e44:	419b      	sbcs	r3, r3
    2e46:	000d      	movs	r5, r1
    2e48:	1aba      	subs	r2, r7, r2
    2e4a:	425b      	negs	r3, r3
    2e4c:	1ad7      	subs	r7, r2, r3
    2e4e:	023b      	lsls	r3, r7, #8
    2e50:	d535      	bpl.n	2ebe <__aeabi_dsub+0x182>
    2e52:	027a      	lsls	r2, r7, #9
    2e54:	0a53      	lsrs	r3, r2, #9
    2e56:	4698      	mov	r8, r3
    2e58:	4643      	mov	r3, r8
    2e5a:	2b00      	cmp	r3, #0
    2e5c:	d100      	bne.n	2e60 <__aeabi_dsub+0x124>
    2e5e:	e0c4      	b.n	2fea <__aeabi_dsub+0x2ae>
    2e60:	4640      	mov	r0, r8
    2e62:	f000 fb37 	bl	34d4 <__clzsi2>
    2e66:	0003      	movs	r3, r0
    2e68:	3b08      	subs	r3, #8
    2e6a:	2b1f      	cmp	r3, #31
    2e6c:	dd00      	ble.n	2e70 <__aeabi_dsub+0x134>
    2e6e:	e0c5      	b.n	2ffc <__aeabi_dsub+0x2c0>
    2e70:	2220      	movs	r2, #32
    2e72:	0029      	movs	r1, r5
    2e74:	1ad2      	subs	r2, r2, r3
    2e76:	4647      	mov	r7, r8
    2e78:	40d1      	lsrs	r1, r2
    2e7a:	409f      	lsls	r7, r3
    2e7c:	000a      	movs	r2, r1
    2e7e:	409d      	lsls	r5, r3
    2e80:	433a      	orrs	r2, r7
    2e82:	429c      	cmp	r4, r3
    2e84:	dd00      	ble.n	2e88 <__aeabi_dsub+0x14c>
    2e86:	e0c0      	b.n	300a <__aeabi_dsub+0x2ce>
    2e88:	1b1c      	subs	r4, r3, r4
    2e8a:	1c63      	adds	r3, r4, #1
    2e8c:	2b1f      	cmp	r3, #31
    2e8e:	dd00      	ble.n	2e92 <__aeabi_dsub+0x156>
    2e90:	e0e4      	b.n	305c <__aeabi_dsub+0x320>
    2e92:	2120      	movs	r1, #32
    2e94:	0014      	movs	r4, r2
    2e96:	0028      	movs	r0, r5
    2e98:	1ac9      	subs	r1, r1, r3
    2e9a:	40d8      	lsrs	r0, r3
    2e9c:	408c      	lsls	r4, r1
    2e9e:	408d      	lsls	r5, r1
    2ea0:	4304      	orrs	r4, r0
    2ea2:	40da      	lsrs	r2, r3
    2ea4:	1e68      	subs	r0, r5, #1
    2ea6:	4185      	sbcs	r5, r0
    2ea8:	0017      	movs	r7, r2
    2eaa:	4325      	orrs	r5, r4
    2eac:	2400      	movs	r4, #0
    2eae:	e771      	b.n	2d94 <__aeabi_dsub+0x58>
    2eb0:	4642      	mov	r2, r8
    2eb2:	4663      	mov	r3, ip
    2eb4:	431a      	orrs	r2, r3
    2eb6:	d100      	bne.n	2eba <__aeabi_dsub+0x17e>
    2eb8:	e24c      	b.n	3354 <__aeabi_dsub+0x618>
    2eba:	4667      	mov	r7, ip
    2ebc:	4645      	mov	r5, r8
    2ebe:	076b      	lsls	r3, r5, #29
    2ec0:	d000      	beq.n	2ec4 <__aeabi_dsub+0x188>
    2ec2:	e769      	b.n	2d98 <__aeabi_dsub+0x5c>
    2ec4:	2301      	movs	r3, #1
    2ec6:	4651      	mov	r1, sl
    2ec8:	0778      	lsls	r0, r7, #29
    2eca:	08ed      	lsrs	r5, r5, #3
    2ecc:	08fa      	lsrs	r2, r7, #3
    2ece:	400b      	ands	r3, r1
    2ed0:	4305      	orrs	r5, r0
    2ed2:	4973      	ldr	r1, [pc, #460]	; (30a0 <__aeabi_dsub+0x364>)
    2ed4:	428c      	cmp	r4, r1
    2ed6:	d038      	beq.n	2f4a <__aeabi_dsub+0x20e>
    2ed8:	0312      	lsls	r2, r2, #12
    2eda:	0564      	lsls	r4, r4, #21
    2edc:	0b12      	lsrs	r2, r2, #12
    2ede:	0d64      	lsrs	r4, r4, #21
    2ee0:	e779      	b.n	2dd6 <__aeabi_dsub+0x9a>
    2ee2:	2e00      	cmp	r6, #0
    2ee4:	dc00      	bgt.n	2ee8 <__aeabi_dsub+0x1ac>
    2ee6:	e09a      	b.n	301e <__aeabi_dsub+0x2e2>
    2ee8:	2a00      	cmp	r2, #0
    2eea:	d047      	beq.n	2f7c <__aeabi_dsub+0x240>
    2eec:	4a6c      	ldr	r2, [pc, #432]	; (30a0 <__aeabi_dsub+0x364>)
    2eee:	4294      	cmp	r4, r2
    2ef0:	d100      	bne.n	2ef4 <__aeabi_dsub+0x1b8>
    2ef2:	e74f      	b.n	2d94 <__aeabi_dsub+0x58>
    2ef4:	2280      	movs	r2, #128	; 0x80
    2ef6:	0412      	lsls	r2, r2, #16
    2ef8:	4310      	orrs	r0, r2
    2efa:	4662      	mov	r2, ip
    2efc:	2a38      	cmp	r2, #56	; 0x38
    2efe:	dc00      	bgt.n	2f02 <__aeabi_dsub+0x1c6>
    2f00:	e108      	b.n	3114 <__aeabi_dsub+0x3d8>
    2f02:	4301      	orrs	r1, r0
    2f04:	1e48      	subs	r0, r1, #1
    2f06:	4181      	sbcs	r1, r0
    2f08:	2200      	movs	r2, #0
    2f0a:	b2c9      	uxtb	r1, r1
    2f0c:	1949      	adds	r1, r1, r5
    2f0e:	19d2      	adds	r2, r2, r7
    2f10:	42a9      	cmp	r1, r5
    2f12:	41bf      	sbcs	r7, r7
    2f14:	000d      	movs	r5, r1
    2f16:	427f      	negs	r7, r7
    2f18:	18bf      	adds	r7, r7, r2
    2f1a:	023a      	lsls	r2, r7, #8
    2f1c:	d400      	bmi.n	2f20 <__aeabi_dsub+0x1e4>
    2f1e:	e142      	b.n	31a6 <__aeabi_dsub+0x46a>
    2f20:	4a5f      	ldr	r2, [pc, #380]	; (30a0 <__aeabi_dsub+0x364>)
    2f22:	3401      	adds	r4, #1
    2f24:	4294      	cmp	r4, r2
    2f26:	d100      	bne.n	2f2a <__aeabi_dsub+0x1ee>
    2f28:	e14e      	b.n	31c8 <__aeabi_dsub+0x48c>
    2f2a:	2001      	movs	r0, #1
    2f2c:	4a5d      	ldr	r2, [pc, #372]	; (30a4 <__aeabi_dsub+0x368>)
    2f2e:	0869      	lsrs	r1, r5, #1
    2f30:	403a      	ands	r2, r7
    2f32:	4028      	ands	r0, r5
    2f34:	4308      	orrs	r0, r1
    2f36:	07d5      	lsls	r5, r2, #31
    2f38:	4305      	orrs	r5, r0
    2f3a:	0857      	lsrs	r7, r2, #1
    2f3c:	469a      	mov	sl, r3
    2f3e:	e729      	b.n	2d94 <__aeabi_dsub+0x58>
    2f40:	0006      	movs	r6, r0
    2f42:	430e      	orrs	r6, r1
    2f44:	d000      	beq.n	2f48 <__aeabi_dsub+0x20c>
    2f46:	e717      	b.n	2d78 <__aeabi_dsub+0x3c>
    2f48:	e714      	b.n	2d74 <__aeabi_dsub+0x38>
    2f4a:	0029      	movs	r1, r5
    2f4c:	4311      	orrs	r1, r2
    2f4e:	d100      	bne.n	2f52 <__aeabi_dsub+0x216>
    2f50:	e1f9      	b.n	3346 <__aeabi_dsub+0x60a>
    2f52:	2180      	movs	r1, #128	; 0x80
    2f54:	0309      	lsls	r1, r1, #12
    2f56:	430a      	orrs	r2, r1
    2f58:	0312      	lsls	r2, r2, #12
    2f5a:	0b12      	lsrs	r2, r2, #12
    2f5c:	e73b      	b.n	2dd6 <__aeabi_dsub+0x9a>
    2f5e:	2301      	movs	r3, #1
    2f60:	425b      	negs	r3, r3
    2f62:	4698      	mov	r8, r3
    2f64:	44c4      	add	ip, r8
    2f66:	4663      	mov	r3, ip
    2f68:	2b00      	cmp	r3, #0
    2f6a:	d172      	bne.n	3052 <__aeabi_dsub+0x316>
    2f6c:	1a69      	subs	r1, r5, r1
    2f6e:	428d      	cmp	r5, r1
    2f70:	419b      	sbcs	r3, r3
    2f72:	1a3f      	subs	r7, r7, r0
    2f74:	425b      	negs	r3, r3
    2f76:	1aff      	subs	r7, r7, r3
    2f78:	000d      	movs	r5, r1
    2f7a:	e768      	b.n	2e4e <__aeabi_dsub+0x112>
    2f7c:	0002      	movs	r2, r0
    2f7e:	430a      	orrs	r2, r1
    2f80:	d100      	bne.n	2f84 <__aeabi_dsub+0x248>
    2f82:	e707      	b.n	2d94 <__aeabi_dsub+0x58>
    2f84:	2201      	movs	r2, #1
    2f86:	4252      	negs	r2, r2
    2f88:	4690      	mov	r8, r2
    2f8a:	44c4      	add	ip, r8
    2f8c:	4662      	mov	r2, ip
    2f8e:	2a00      	cmp	r2, #0
    2f90:	d000      	beq.n	2f94 <__aeabi_dsub+0x258>
    2f92:	e0e6      	b.n	3162 <__aeabi_dsub+0x426>
    2f94:	1869      	adds	r1, r5, r1
    2f96:	42a9      	cmp	r1, r5
    2f98:	41b6      	sbcs	r6, r6
    2f9a:	183f      	adds	r7, r7, r0
    2f9c:	4276      	negs	r6, r6
    2f9e:	19f7      	adds	r7, r6, r7
    2fa0:	000d      	movs	r5, r1
    2fa2:	e7ba      	b.n	2f1a <__aeabi_dsub+0x1de>
    2fa4:	2e00      	cmp	r6, #0
    2fa6:	d000      	beq.n	2faa <__aeabi_dsub+0x26e>
    2fa8:	e080      	b.n	30ac <__aeabi_dsub+0x370>
    2faa:	1c62      	adds	r2, r4, #1
    2fac:	0552      	lsls	r2, r2, #21
    2fae:	0d52      	lsrs	r2, r2, #21
    2fb0:	2a01      	cmp	r2, #1
    2fb2:	dc00      	bgt.n	2fb6 <__aeabi_dsub+0x27a>
    2fb4:	e0f9      	b.n	31aa <__aeabi_dsub+0x46e>
    2fb6:	1a6a      	subs	r2, r5, r1
    2fb8:	4691      	mov	r9, r2
    2fba:	454d      	cmp	r5, r9
    2fbc:	41b6      	sbcs	r6, r6
    2fbe:	1a3a      	subs	r2, r7, r0
    2fc0:	4276      	negs	r6, r6
    2fc2:	1b92      	subs	r2, r2, r6
    2fc4:	4690      	mov	r8, r2
    2fc6:	0212      	lsls	r2, r2, #8
    2fc8:	d400      	bmi.n	2fcc <__aeabi_dsub+0x290>
    2fca:	e099      	b.n	3100 <__aeabi_dsub+0x3c4>
    2fcc:	1b4d      	subs	r5, r1, r5
    2fce:	42a9      	cmp	r1, r5
    2fd0:	4189      	sbcs	r1, r1
    2fd2:	1bc7      	subs	r7, r0, r7
    2fd4:	4249      	negs	r1, r1
    2fd6:	1a7a      	subs	r2, r7, r1
    2fd8:	4690      	mov	r8, r2
    2fda:	469a      	mov	sl, r3
    2fdc:	e73c      	b.n	2e58 <__aeabi_dsub+0x11c>
    2fde:	4652      	mov	r2, sl
    2fe0:	2301      	movs	r3, #1
    2fe2:	2500      	movs	r5, #0
    2fe4:	4013      	ands	r3, r2
    2fe6:	2200      	movs	r2, #0
    2fe8:	e6f5      	b.n	2dd6 <__aeabi_dsub+0x9a>
    2fea:	0028      	movs	r0, r5
    2fec:	f000 fa72 	bl	34d4 <__clzsi2>
    2ff0:	3020      	adds	r0, #32
    2ff2:	0003      	movs	r3, r0
    2ff4:	3b08      	subs	r3, #8
    2ff6:	2b1f      	cmp	r3, #31
    2ff8:	dc00      	bgt.n	2ffc <__aeabi_dsub+0x2c0>
    2ffa:	e739      	b.n	2e70 <__aeabi_dsub+0x134>
    2ffc:	002a      	movs	r2, r5
    2ffe:	3828      	subs	r0, #40	; 0x28
    3000:	4082      	lsls	r2, r0
    3002:	2500      	movs	r5, #0
    3004:	429c      	cmp	r4, r3
    3006:	dc00      	bgt.n	300a <__aeabi_dsub+0x2ce>
    3008:	e73e      	b.n	2e88 <__aeabi_dsub+0x14c>
    300a:	4f26      	ldr	r7, [pc, #152]	; (30a4 <__aeabi_dsub+0x368>)
    300c:	1ae4      	subs	r4, r4, r3
    300e:	4017      	ands	r7, r2
    3010:	e6c0      	b.n	2d94 <__aeabi_dsub+0x58>
    3012:	4301      	orrs	r1, r0
    3014:	1e48      	subs	r0, r1, #1
    3016:	4181      	sbcs	r1, r0
    3018:	2200      	movs	r2, #0
    301a:	b2c9      	uxtb	r1, r1
    301c:	e710      	b.n	2e40 <__aeabi_dsub+0x104>
    301e:	2e00      	cmp	r6, #0
    3020:	d000      	beq.n	3024 <__aeabi_dsub+0x2e8>
    3022:	e0f1      	b.n	3208 <__aeabi_dsub+0x4cc>
    3024:	1c62      	adds	r2, r4, #1
    3026:	4694      	mov	ip, r2
    3028:	0552      	lsls	r2, r2, #21
    302a:	0d52      	lsrs	r2, r2, #21
    302c:	2a01      	cmp	r2, #1
    302e:	dc00      	bgt.n	3032 <__aeabi_dsub+0x2f6>
    3030:	e0a0      	b.n	3174 <__aeabi_dsub+0x438>
    3032:	4a1b      	ldr	r2, [pc, #108]	; (30a0 <__aeabi_dsub+0x364>)
    3034:	4594      	cmp	ip, r2
    3036:	d100      	bne.n	303a <__aeabi_dsub+0x2fe>
    3038:	e0c5      	b.n	31c6 <__aeabi_dsub+0x48a>
    303a:	1869      	adds	r1, r5, r1
    303c:	42a9      	cmp	r1, r5
    303e:	4192      	sbcs	r2, r2
    3040:	183f      	adds	r7, r7, r0
    3042:	4252      	negs	r2, r2
    3044:	19d2      	adds	r2, r2, r7
    3046:	0849      	lsrs	r1, r1, #1
    3048:	07d5      	lsls	r5, r2, #31
    304a:	430d      	orrs	r5, r1
    304c:	0857      	lsrs	r7, r2, #1
    304e:	4664      	mov	r4, ip
    3050:	e6a0      	b.n	2d94 <__aeabi_dsub+0x58>
    3052:	4b13      	ldr	r3, [pc, #76]	; (30a0 <__aeabi_dsub+0x364>)
    3054:	429c      	cmp	r4, r3
    3056:	d000      	beq.n	305a <__aeabi_dsub+0x31e>
    3058:	e6d9      	b.n	2e0e <__aeabi_dsub+0xd2>
    305a:	e69b      	b.n	2d94 <__aeabi_dsub+0x58>
    305c:	0011      	movs	r1, r2
    305e:	3c1f      	subs	r4, #31
    3060:	40e1      	lsrs	r1, r4
    3062:	000c      	movs	r4, r1
    3064:	2b20      	cmp	r3, #32
    3066:	d100      	bne.n	306a <__aeabi_dsub+0x32e>
    3068:	e080      	b.n	316c <__aeabi_dsub+0x430>
    306a:	2140      	movs	r1, #64	; 0x40
    306c:	1acb      	subs	r3, r1, r3
    306e:	409a      	lsls	r2, r3
    3070:	4315      	orrs	r5, r2
    3072:	1e6a      	subs	r2, r5, #1
    3074:	4195      	sbcs	r5, r2
    3076:	2700      	movs	r7, #0
    3078:	4325      	orrs	r5, r4
    307a:	2400      	movs	r4, #0
    307c:	e71f      	b.n	2ebe <__aeabi_dsub+0x182>
    307e:	4663      	mov	r3, ip
    3080:	0002      	movs	r2, r0
    3082:	3b20      	subs	r3, #32
    3084:	40da      	lsrs	r2, r3
    3086:	4663      	mov	r3, ip
    3088:	2b20      	cmp	r3, #32
    308a:	d071      	beq.n	3170 <__aeabi_dsub+0x434>
    308c:	2340      	movs	r3, #64	; 0x40
    308e:	4666      	mov	r6, ip
    3090:	1b9b      	subs	r3, r3, r6
    3092:	4098      	lsls	r0, r3
    3094:	4301      	orrs	r1, r0
    3096:	1e48      	subs	r0, r1, #1
    3098:	4181      	sbcs	r1, r0
    309a:	4311      	orrs	r1, r2
    309c:	2200      	movs	r2, #0
    309e:	e6cf      	b.n	2e40 <__aeabi_dsub+0x104>
    30a0:	000007ff 	.word	0x000007ff
    30a4:	ff7fffff 	.word	0xff7fffff
    30a8:	800fffff 	.word	0x800fffff
    30ac:	2c00      	cmp	r4, #0
    30ae:	d048      	beq.n	3142 <__aeabi_dsub+0x406>
    30b0:	4cca      	ldr	r4, [pc, #808]	; (33dc <__aeabi_dsub+0x6a0>)
    30b2:	42a2      	cmp	r2, r4
    30b4:	d100      	bne.n	30b8 <__aeabi_dsub+0x37c>
    30b6:	e0a2      	b.n	31fe <__aeabi_dsub+0x4c2>
    30b8:	4274      	negs	r4, r6
    30ba:	46a1      	mov	r9, r4
    30bc:	2480      	movs	r4, #128	; 0x80
    30be:	0424      	lsls	r4, r4, #16
    30c0:	4327      	orrs	r7, r4
    30c2:	464c      	mov	r4, r9
    30c4:	2c38      	cmp	r4, #56	; 0x38
    30c6:	dd00      	ble.n	30ca <__aeabi_dsub+0x38e>
    30c8:	e0db      	b.n	3282 <__aeabi_dsub+0x546>
    30ca:	2c1f      	cmp	r4, #31
    30cc:	dd00      	ble.n	30d0 <__aeabi_dsub+0x394>
    30ce:	e144      	b.n	335a <__aeabi_dsub+0x61e>
    30d0:	464e      	mov	r6, r9
    30d2:	2420      	movs	r4, #32
    30d4:	1ba4      	subs	r4, r4, r6
    30d6:	003e      	movs	r6, r7
    30d8:	40a6      	lsls	r6, r4
    30da:	46a2      	mov	sl, r4
    30dc:	46b0      	mov	r8, r6
    30de:	464c      	mov	r4, r9
    30e0:	002e      	movs	r6, r5
    30e2:	40e6      	lsrs	r6, r4
    30e4:	46b4      	mov	ip, r6
    30e6:	4646      	mov	r6, r8
    30e8:	4664      	mov	r4, ip
    30ea:	4326      	orrs	r6, r4
    30ec:	4654      	mov	r4, sl
    30ee:	40a5      	lsls	r5, r4
    30f0:	1e6c      	subs	r4, r5, #1
    30f2:	41a5      	sbcs	r5, r4
    30f4:	0034      	movs	r4, r6
    30f6:	432c      	orrs	r4, r5
    30f8:	464d      	mov	r5, r9
    30fa:	40ef      	lsrs	r7, r5
    30fc:	1b0d      	subs	r5, r1, r4
    30fe:	e028      	b.n	3152 <__aeabi_dsub+0x416>
    3100:	464a      	mov	r2, r9
    3102:	4643      	mov	r3, r8
    3104:	464d      	mov	r5, r9
    3106:	431a      	orrs	r2, r3
    3108:	d000      	beq.n	310c <__aeabi_dsub+0x3d0>
    310a:	e6a5      	b.n	2e58 <__aeabi_dsub+0x11c>
    310c:	2300      	movs	r3, #0
    310e:	2400      	movs	r4, #0
    3110:	2500      	movs	r5, #0
    3112:	e6de      	b.n	2ed2 <__aeabi_dsub+0x196>
    3114:	2a1f      	cmp	r2, #31
    3116:	dc5a      	bgt.n	31ce <__aeabi_dsub+0x492>
    3118:	4666      	mov	r6, ip
    311a:	2220      	movs	r2, #32
    311c:	1b92      	subs	r2, r2, r6
    311e:	0006      	movs	r6, r0
    3120:	4096      	lsls	r6, r2
    3122:	4691      	mov	r9, r2
    3124:	46b0      	mov	r8, r6
    3126:	4662      	mov	r2, ip
    3128:	000e      	movs	r6, r1
    312a:	40d6      	lsrs	r6, r2
    312c:	4642      	mov	r2, r8
    312e:	4316      	orrs	r6, r2
    3130:	464a      	mov	r2, r9
    3132:	4091      	lsls	r1, r2
    3134:	1e4a      	subs	r2, r1, #1
    3136:	4191      	sbcs	r1, r2
    3138:	0002      	movs	r2, r0
    313a:	4660      	mov	r0, ip
    313c:	4331      	orrs	r1, r6
    313e:	40c2      	lsrs	r2, r0
    3140:	e6e4      	b.n	2f0c <__aeabi_dsub+0x1d0>
    3142:	003c      	movs	r4, r7
    3144:	432c      	orrs	r4, r5
    3146:	d05a      	beq.n	31fe <__aeabi_dsub+0x4c2>
    3148:	43f4      	mvns	r4, r6
    314a:	46a1      	mov	r9, r4
    314c:	2c00      	cmp	r4, #0
    314e:	d152      	bne.n	31f6 <__aeabi_dsub+0x4ba>
    3150:	1b4d      	subs	r5, r1, r5
    3152:	42a9      	cmp	r1, r5
    3154:	4189      	sbcs	r1, r1
    3156:	1bc7      	subs	r7, r0, r7
    3158:	4249      	negs	r1, r1
    315a:	1a7f      	subs	r7, r7, r1
    315c:	0014      	movs	r4, r2
    315e:	469a      	mov	sl, r3
    3160:	e675      	b.n	2e4e <__aeabi_dsub+0x112>
    3162:	4a9e      	ldr	r2, [pc, #632]	; (33dc <__aeabi_dsub+0x6a0>)
    3164:	4294      	cmp	r4, r2
    3166:	d000      	beq.n	316a <__aeabi_dsub+0x42e>
    3168:	e6c7      	b.n	2efa <__aeabi_dsub+0x1be>
    316a:	e613      	b.n	2d94 <__aeabi_dsub+0x58>
    316c:	2200      	movs	r2, #0
    316e:	e77f      	b.n	3070 <__aeabi_dsub+0x334>
    3170:	2000      	movs	r0, #0
    3172:	e78f      	b.n	3094 <__aeabi_dsub+0x358>
    3174:	2c00      	cmp	r4, #0
    3176:	d000      	beq.n	317a <__aeabi_dsub+0x43e>
    3178:	e0c8      	b.n	330c <__aeabi_dsub+0x5d0>
    317a:	003b      	movs	r3, r7
    317c:	432b      	orrs	r3, r5
    317e:	d100      	bne.n	3182 <__aeabi_dsub+0x446>
    3180:	e10f      	b.n	33a2 <__aeabi_dsub+0x666>
    3182:	0003      	movs	r3, r0
    3184:	430b      	orrs	r3, r1
    3186:	d100      	bne.n	318a <__aeabi_dsub+0x44e>
    3188:	e604      	b.n	2d94 <__aeabi_dsub+0x58>
    318a:	1869      	adds	r1, r5, r1
    318c:	42a9      	cmp	r1, r5
    318e:	419b      	sbcs	r3, r3
    3190:	183f      	adds	r7, r7, r0
    3192:	425b      	negs	r3, r3
    3194:	19df      	adds	r7, r3, r7
    3196:	023b      	lsls	r3, r7, #8
    3198:	d400      	bmi.n	319c <__aeabi_dsub+0x460>
    319a:	e11a      	b.n	33d2 <__aeabi_dsub+0x696>
    319c:	4b90      	ldr	r3, [pc, #576]	; (33e0 <__aeabi_dsub+0x6a4>)
    319e:	000d      	movs	r5, r1
    31a0:	401f      	ands	r7, r3
    31a2:	4664      	mov	r4, ip
    31a4:	e5f6      	b.n	2d94 <__aeabi_dsub+0x58>
    31a6:	469a      	mov	sl, r3
    31a8:	e689      	b.n	2ebe <__aeabi_dsub+0x182>
    31aa:	003a      	movs	r2, r7
    31ac:	432a      	orrs	r2, r5
    31ae:	2c00      	cmp	r4, #0
    31b0:	d15c      	bne.n	326c <__aeabi_dsub+0x530>
    31b2:	2a00      	cmp	r2, #0
    31b4:	d175      	bne.n	32a2 <__aeabi_dsub+0x566>
    31b6:	0002      	movs	r2, r0
    31b8:	430a      	orrs	r2, r1
    31ba:	d100      	bne.n	31be <__aeabi_dsub+0x482>
    31bc:	e0ca      	b.n	3354 <__aeabi_dsub+0x618>
    31be:	0007      	movs	r7, r0
    31c0:	000d      	movs	r5, r1
    31c2:	469a      	mov	sl, r3
    31c4:	e5e6      	b.n	2d94 <__aeabi_dsub+0x58>
    31c6:	4664      	mov	r4, ip
    31c8:	2200      	movs	r2, #0
    31ca:	2500      	movs	r5, #0
    31cc:	e681      	b.n	2ed2 <__aeabi_dsub+0x196>
    31ce:	4662      	mov	r2, ip
    31d0:	0006      	movs	r6, r0
    31d2:	3a20      	subs	r2, #32
    31d4:	40d6      	lsrs	r6, r2
    31d6:	4662      	mov	r2, ip
    31d8:	46b0      	mov	r8, r6
    31da:	2a20      	cmp	r2, #32
    31dc:	d100      	bne.n	31e0 <__aeabi_dsub+0x4a4>
    31de:	e0b7      	b.n	3350 <__aeabi_dsub+0x614>
    31e0:	2240      	movs	r2, #64	; 0x40
    31e2:	4666      	mov	r6, ip
    31e4:	1b92      	subs	r2, r2, r6
    31e6:	4090      	lsls	r0, r2
    31e8:	4301      	orrs	r1, r0
    31ea:	4642      	mov	r2, r8
    31ec:	1e48      	subs	r0, r1, #1
    31ee:	4181      	sbcs	r1, r0
    31f0:	4311      	orrs	r1, r2
    31f2:	2200      	movs	r2, #0
    31f4:	e68a      	b.n	2f0c <__aeabi_dsub+0x1d0>
    31f6:	4c79      	ldr	r4, [pc, #484]	; (33dc <__aeabi_dsub+0x6a0>)
    31f8:	42a2      	cmp	r2, r4
    31fa:	d000      	beq.n	31fe <__aeabi_dsub+0x4c2>
    31fc:	e761      	b.n	30c2 <__aeabi_dsub+0x386>
    31fe:	0007      	movs	r7, r0
    3200:	000d      	movs	r5, r1
    3202:	0014      	movs	r4, r2
    3204:	469a      	mov	sl, r3
    3206:	e5c5      	b.n	2d94 <__aeabi_dsub+0x58>
    3208:	2c00      	cmp	r4, #0
    320a:	d141      	bne.n	3290 <__aeabi_dsub+0x554>
    320c:	003c      	movs	r4, r7
    320e:	432c      	orrs	r4, r5
    3210:	d078      	beq.n	3304 <__aeabi_dsub+0x5c8>
    3212:	43f4      	mvns	r4, r6
    3214:	46a1      	mov	r9, r4
    3216:	2c00      	cmp	r4, #0
    3218:	d020      	beq.n	325c <__aeabi_dsub+0x520>
    321a:	4c70      	ldr	r4, [pc, #448]	; (33dc <__aeabi_dsub+0x6a0>)
    321c:	42a2      	cmp	r2, r4
    321e:	d071      	beq.n	3304 <__aeabi_dsub+0x5c8>
    3220:	464c      	mov	r4, r9
    3222:	2c38      	cmp	r4, #56	; 0x38
    3224:	dd00      	ble.n	3228 <__aeabi_dsub+0x4ec>
    3226:	e0b2      	b.n	338e <__aeabi_dsub+0x652>
    3228:	2c1f      	cmp	r4, #31
    322a:	dd00      	ble.n	322e <__aeabi_dsub+0x4f2>
    322c:	e0bc      	b.n	33a8 <__aeabi_dsub+0x66c>
    322e:	2620      	movs	r6, #32
    3230:	1b34      	subs	r4, r6, r4
    3232:	46a2      	mov	sl, r4
    3234:	003c      	movs	r4, r7
    3236:	4656      	mov	r6, sl
    3238:	40b4      	lsls	r4, r6
    323a:	464e      	mov	r6, r9
    323c:	46a0      	mov	r8, r4
    323e:	002c      	movs	r4, r5
    3240:	40f4      	lsrs	r4, r6
    3242:	46a4      	mov	ip, r4
    3244:	4644      	mov	r4, r8
    3246:	4666      	mov	r6, ip
    3248:	4334      	orrs	r4, r6
    324a:	46a4      	mov	ip, r4
    324c:	4654      	mov	r4, sl
    324e:	40a5      	lsls	r5, r4
    3250:	4664      	mov	r4, ip
    3252:	1e6e      	subs	r6, r5, #1
    3254:	41b5      	sbcs	r5, r6
    3256:	4325      	orrs	r5, r4
    3258:	464c      	mov	r4, r9
    325a:	40e7      	lsrs	r7, r4
    325c:	186d      	adds	r5, r5, r1
    325e:	428d      	cmp	r5, r1
    3260:	4189      	sbcs	r1, r1
    3262:	183f      	adds	r7, r7, r0
    3264:	4249      	negs	r1, r1
    3266:	19cf      	adds	r7, r1, r7
    3268:	0014      	movs	r4, r2
    326a:	e656      	b.n	2f1a <__aeabi_dsub+0x1de>
    326c:	2a00      	cmp	r2, #0
    326e:	d12f      	bne.n	32d0 <__aeabi_dsub+0x594>
    3270:	0002      	movs	r2, r0
    3272:	430a      	orrs	r2, r1
    3274:	d100      	bne.n	3278 <__aeabi_dsub+0x53c>
    3276:	e084      	b.n	3382 <__aeabi_dsub+0x646>
    3278:	0007      	movs	r7, r0
    327a:	000d      	movs	r5, r1
    327c:	469a      	mov	sl, r3
    327e:	4c57      	ldr	r4, [pc, #348]	; (33dc <__aeabi_dsub+0x6a0>)
    3280:	e588      	b.n	2d94 <__aeabi_dsub+0x58>
    3282:	433d      	orrs	r5, r7
    3284:	1e6f      	subs	r7, r5, #1
    3286:	41bd      	sbcs	r5, r7
    3288:	b2ec      	uxtb	r4, r5
    328a:	2700      	movs	r7, #0
    328c:	1b0d      	subs	r5, r1, r4
    328e:	e760      	b.n	3152 <__aeabi_dsub+0x416>
    3290:	4c52      	ldr	r4, [pc, #328]	; (33dc <__aeabi_dsub+0x6a0>)
    3292:	42a2      	cmp	r2, r4
    3294:	d036      	beq.n	3304 <__aeabi_dsub+0x5c8>
    3296:	4274      	negs	r4, r6
    3298:	2680      	movs	r6, #128	; 0x80
    329a:	0436      	lsls	r6, r6, #16
    329c:	46a1      	mov	r9, r4
    329e:	4337      	orrs	r7, r6
    32a0:	e7be      	b.n	3220 <__aeabi_dsub+0x4e4>
    32a2:	0002      	movs	r2, r0
    32a4:	430a      	orrs	r2, r1
    32a6:	d100      	bne.n	32aa <__aeabi_dsub+0x56e>
    32a8:	e574      	b.n	2d94 <__aeabi_dsub+0x58>
    32aa:	1a6a      	subs	r2, r5, r1
    32ac:	4690      	mov	r8, r2
    32ae:	4545      	cmp	r5, r8
    32b0:	41b6      	sbcs	r6, r6
    32b2:	1a3a      	subs	r2, r7, r0
    32b4:	4276      	negs	r6, r6
    32b6:	1b92      	subs	r2, r2, r6
    32b8:	4694      	mov	ip, r2
    32ba:	0212      	lsls	r2, r2, #8
    32bc:	d400      	bmi.n	32c0 <__aeabi_dsub+0x584>
    32be:	e5f7      	b.n	2eb0 <__aeabi_dsub+0x174>
    32c0:	1b4d      	subs	r5, r1, r5
    32c2:	42a9      	cmp	r1, r5
    32c4:	4189      	sbcs	r1, r1
    32c6:	1bc7      	subs	r7, r0, r7
    32c8:	4249      	negs	r1, r1
    32ca:	1a7f      	subs	r7, r7, r1
    32cc:	469a      	mov	sl, r3
    32ce:	e561      	b.n	2d94 <__aeabi_dsub+0x58>
    32d0:	0002      	movs	r2, r0
    32d2:	430a      	orrs	r2, r1
    32d4:	d03a      	beq.n	334c <__aeabi_dsub+0x610>
    32d6:	08ed      	lsrs	r5, r5, #3
    32d8:	077c      	lsls	r4, r7, #29
    32da:	432c      	orrs	r4, r5
    32dc:	2580      	movs	r5, #128	; 0x80
    32de:	08fa      	lsrs	r2, r7, #3
    32e0:	032d      	lsls	r5, r5, #12
    32e2:	422a      	tst	r2, r5
    32e4:	d008      	beq.n	32f8 <__aeabi_dsub+0x5bc>
    32e6:	08c7      	lsrs	r7, r0, #3
    32e8:	422f      	tst	r7, r5
    32ea:	d105      	bne.n	32f8 <__aeabi_dsub+0x5bc>
    32ec:	0745      	lsls	r5, r0, #29
    32ee:	002c      	movs	r4, r5
    32f0:	003a      	movs	r2, r7
    32f2:	469a      	mov	sl, r3
    32f4:	08c9      	lsrs	r1, r1, #3
    32f6:	430c      	orrs	r4, r1
    32f8:	0f67      	lsrs	r7, r4, #29
    32fa:	00d2      	lsls	r2, r2, #3
    32fc:	00e5      	lsls	r5, r4, #3
    32fe:	4317      	orrs	r7, r2
    3300:	4c36      	ldr	r4, [pc, #216]	; (33dc <__aeabi_dsub+0x6a0>)
    3302:	e547      	b.n	2d94 <__aeabi_dsub+0x58>
    3304:	0007      	movs	r7, r0
    3306:	000d      	movs	r5, r1
    3308:	0014      	movs	r4, r2
    330a:	e543      	b.n	2d94 <__aeabi_dsub+0x58>
    330c:	003a      	movs	r2, r7
    330e:	432a      	orrs	r2, r5
    3310:	d043      	beq.n	339a <__aeabi_dsub+0x65e>
    3312:	0002      	movs	r2, r0
    3314:	430a      	orrs	r2, r1
    3316:	d019      	beq.n	334c <__aeabi_dsub+0x610>
    3318:	08ed      	lsrs	r5, r5, #3
    331a:	077c      	lsls	r4, r7, #29
    331c:	432c      	orrs	r4, r5
    331e:	2580      	movs	r5, #128	; 0x80
    3320:	08fa      	lsrs	r2, r7, #3
    3322:	032d      	lsls	r5, r5, #12
    3324:	422a      	tst	r2, r5
    3326:	d007      	beq.n	3338 <__aeabi_dsub+0x5fc>
    3328:	08c6      	lsrs	r6, r0, #3
    332a:	422e      	tst	r6, r5
    332c:	d104      	bne.n	3338 <__aeabi_dsub+0x5fc>
    332e:	0747      	lsls	r7, r0, #29
    3330:	003c      	movs	r4, r7
    3332:	0032      	movs	r2, r6
    3334:	08c9      	lsrs	r1, r1, #3
    3336:	430c      	orrs	r4, r1
    3338:	00d7      	lsls	r7, r2, #3
    333a:	0f62      	lsrs	r2, r4, #29
    333c:	00e5      	lsls	r5, r4, #3
    333e:	4317      	orrs	r7, r2
    3340:	469a      	mov	sl, r3
    3342:	4c26      	ldr	r4, [pc, #152]	; (33dc <__aeabi_dsub+0x6a0>)
    3344:	e526      	b.n	2d94 <__aeabi_dsub+0x58>
    3346:	2200      	movs	r2, #0
    3348:	2500      	movs	r5, #0
    334a:	e544      	b.n	2dd6 <__aeabi_dsub+0x9a>
    334c:	4c23      	ldr	r4, [pc, #140]	; (33dc <__aeabi_dsub+0x6a0>)
    334e:	e521      	b.n	2d94 <__aeabi_dsub+0x58>
    3350:	2000      	movs	r0, #0
    3352:	e749      	b.n	31e8 <__aeabi_dsub+0x4ac>
    3354:	2300      	movs	r3, #0
    3356:	2500      	movs	r5, #0
    3358:	e5bb      	b.n	2ed2 <__aeabi_dsub+0x196>
    335a:	464c      	mov	r4, r9
    335c:	003e      	movs	r6, r7
    335e:	3c20      	subs	r4, #32
    3360:	40e6      	lsrs	r6, r4
    3362:	464c      	mov	r4, r9
    3364:	46b4      	mov	ip, r6
    3366:	2c20      	cmp	r4, #32
    3368:	d031      	beq.n	33ce <__aeabi_dsub+0x692>
    336a:	2440      	movs	r4, #64	; 0x40
    336c:	464e      	mov	r6, r9
    336e:	1ba6      	subs	r6, r4, r6
    3370:	40b7      	lsls	r7, r6
    3372:	433d      	orrs	r5, r7
    3374:	1e6c      	subs	r4, r5, #1
    3376:	41a5      	sbcs	r5, r4
    3378:	4664      	mov	r4, ip
    337a:	432c      	orrs	r4, r5
    337c:	2700      	movs	r7, #0
    337e:	1b0d      	subs	r5, r1, r4
    3380:	e6e7      	b.n	3152 <__aeabi_dsub+0x416>
    3382:	2280      	movs	r2, #128	; 0x80
    3384:	2300      	movs	r3, #0
    3386:	0312      	lsls	r2, r2, #12
    3388:	4c14      	ldr	r4, [pc, #80]	; (33dc <__aeabi_dsub+0x6a0>)
    338a:	2500      	movs	r5, #0
    338c:	e5a1      	b.n	2ed2 <__aeabi_dsub+0x196>
    338e:	433d      	orrs	r5, r7
    3390:	1e6f      	subs	r7, r5, #1
    3392:	41bd      	sbcs	r5, r7
    3394:	2700      	movs	r7, #0
    3396:	b2ed      	uxtb	r5, r5
    3398:	e760      	b.n	325c <__aeabi_dsub+0x520>
    339a:	0007      	movs	r7, r0
    339c:	000d      	movs	r5, r1
    339e:	4c0f      	ldr	r4, [pc, #60]	; (33dc <__aeabi_dsub+0x6a0>)
    33a0:	e4f8      	b.n	2d94 <__aeabi_dsub+0x58>
    33a2:	0007      	movs	r7, r0
    33a4:	000d      	movs	r5, r1
    33a6:	e4f5      	b.n	2d94 <__aeabi_dsub+0x58>
    33a8:	464e      	mov	r6, r9
    33aa:	003c      	movs	r4, r7
    33ac:	3e20      	subs	r6, #32
    33ae:	40f4      	lsrs	r4, r6
    33b0:	46a0      	mov	r8, r4
    33b2:	464c      	mov	r4, r9
    33b4:	2c20      	cmp	r4, #32
    33b6:	d00e      	beq.n	33d6 <__aeabi_dsub+0x69a>
    33b8:	2440      	movs	r4, #64	; 0x40
    33ba:	464e      	mov	r6, r9
    33bc:	1ba4      	subs	r4, r4, r6
    33be:	40a7      	lsls	r7, r4
    33c0:	433d      	orrs	r5, r7
    33c2:	1e6f      	subs	r7, r5, #1
    33c4:	41bd      	sbcs	r5, r7
    33c6:	4644      	mov	r4, r8
    33c8:	2700      	movs	r7, #0
    33ca:	4325      	orrs	r5, r4
    33cc:	e746      	b.n	325c <__aeabi_dsub+0x520>
    33ce:	2700      	movs	r7, #0
    33d0:	e7cf      	b.n	3372 <__aeabi_dsub+0x636>
    33d2:	000d      	movs	r5, r1
    33d4:	e573      	b.n	2ebe <__aeabi_dsub+0x182>
    33d6:	2700      	movs	r7, #0
    33d8:	e7f2      	b.n	33c0 <__aeabi_dsub+0x684>
    33da:	46c0      	nop			; (mov r8, r8)
    33dc:	000007ff 	.word	0x000007ff
    33e0:	ff7fffff 	.word	0xff7fffff

000033e4 <__aeabi_d2iz>:
    33e4:	030b      	lsls	r3, r1, #12
    33e6:	b530      	push	{r4, r5, lr}
    33e8:	4d13      	ldr	r5, [pc, #76]	; (3438 <__aeabi_d2iz+0x54>)
    33ea:	0b1a      	lsrs	r2, r3, #12
    33ec:	004b      	lsls	r3, r1, #1
    33ee:	0d5b      	lsrs	r3, r3, #21
    33f0:	0fc9      	lsrs	r1, r1, #31
    33f2:	2400      	movs	r4, #0
    33f4:	42ab      	cmp	r3, r5
    33f6:	dd11      	ble.n	341c <__aeabi_d2iz+0x38>
    33f8:	4c10      	ldr	r4, [pc, #64]	; (343c <__aeabi_d2iz+0x58>)
    33fa:	42a3      	cmp	r3, r4
    33fc:	dc10      	bgt.n	3420 <__aeabi_d2iz+0x3c>
    33fe:	2480      	movs	r4, #128	; 0x80
    3400:	0364      	lsls	r4, r4, #13
    3402:	4322      	orrs	r2, r4
    3404:	4c0e      	ldr	r4, [pc, #56]	; (3440 <__aeabi_d2iz+0x5c>)
    3406:	1ae4      	subs	r4, r4, r3
    3408:	2c1f      	cmp	r4, #31
    340a:	dd0c      	ble.n	3426 <__aeabi_d2iz+0x42>
    340c:	480d      	ldr	r0, [pc, #52]	; (3444 <__aeabi_d2iz+0x60>)
    340e:	1ac3      	subs	r3, r0, r3
    3410:	40da      	lsrs	r2, r3
    3412:	0013      	movs	r3, r2
    3414:	425c      	negs	r4, r3
    3416:	2900      	cmp	r1, #0
    3418:	d100      	bne.n	341c <__aeabi_d2iz+0x38>
    341a:	001c      	movs	r4, r3
    341c:	0020      	movs	r0, r4
    341e:	bd30      	pop	{r4, r5, pc}
    3420:	4b09      	ldr	r3, [pc, #36]	; (3448 <__aeabi_d2iz+0x64>)
    3422:	18cc      	adds	r4, r1, r3
    3424:	e7fa      	b.n	341c <__aeabi_d2iz+0x38>
    3426:	40e0      	lsrs	r0, r4
    3428:	4c08      	ldr	r4, [pc, #32]	; (344c <__aeabi_d2iz+0x68>)
    342a:	46a4      	mov	ip, r4
    342c:	4463      	add	r3, ip
    342e:	409a      	lsls	r2, r3
    3430:	0013      	movs	r3, r2
    3432:	4303      	orrs	r3, r0
    3434:	e7ee      	b.n	3414 <__aeabi_d2iz+0x30>
    3436:	46c0      	nop			; (mov r8, r8)
    3438:	000003fe 	.word	0x000003fe
    343c:	0000041d 	.word	0x0000041d
    3440:	00000433 	.word	0x00000433
    3444:	00000413 	.word	0x00000413
    3448:	7fffffff 	.word	0x7fffffff
    344c:	fffffbed 	.word	0xfffffbed

00003450 <__aeabi_i2d>:
    3450:	b570      	push	{r4, r5, r6, lr}
    3452:	2800      	cmp	r0, #0
    3454:	d030      	beq.n	34b8 <__aeabi_i2d+0x68>
    3456:	17c3      	asrs	r3, r0, #31
    3458:	18c4      	adds	r4, r0, r3
    345a:	405c      	eors	r4, r3
    345c:	0fc5      	lsrs	r5, r0, #31
    345e:	0020      	movs	r0, r4
    3460:	f000 f838 	bl	34d4 <__clzsi2>
    3464:	4b17      	ldr	r3, [pc, #92]	; (34c4 <__aeabi_i2d+0x74>)
    3466:	4a18      	ldr	r2, [pc, #96]	; (34c8 <__aeabi_i2d+0x78>)
    3468:	1a1b      	subs	r3, r3, r0
    346a:	1ad2      	subs	r2, r2, r3
    346c:	2a1f      	cmp	r2, #31
    346e:	dd18      	ble.n	34a2 <__aeabi_i2d+0x52>
    3470:	4a16      	ldr	r2, [pc, #88]	; (34cc <__aeabi_i2d+0x7c>)
    3472:	1ad2      	subs	r2, r2, r3
    3474:	4094      	lsls	r4, r2
    3476:	2200      	movs	r2, #0
    3478:	0324      	lsls	r4, r4, #12
    347a:	055b      	lsls	r3, r3, #21
    347c:	0b24      	lsrs	r4, r4, #12
    347e:	0d5b      	lsrs	r3, r3, #21
    3480:	2100      	movs	r1, #0
    3482:	0010      	movs	r0, r2
    3484:	0324      	lsls	r4, r4, #12
    3486:	0d0a      	lsrs	r2, r1, #20
    3488:	0512      	lsls	r2, r2, #20
    348a:	0b24      	lsrs	r4, r4, #12
    348c:	4314      	orrs	r4, r2
    348e:	4a10      	ldr	r2, [pc, #64]	; (34d0 <__aeabi_i2d+0x80>)
    3490:	051b      	lsls	r3, r3, #20
    3492:	4014      	ands	r4, r2
    3494:	431c      	orrs	r4, r3
    3496:	0064      	lsls	r4, r4, #1
    3498:	07ed      	lsls	r5, r5, #31
    349a:	0864      	lsrs	r4, r4, #1
    349c:	432c      	orrs	r4, r5
    349e:	0021      	movs	r1, r4
    34a0:	bd70      	pop	{r4, r5, r6, pc}
    34a2:	0021      	movs	r1, r4
    34a4:	4091      	lsls	r1, r2
    34a6:	000a      	movs	r2, r1
    34a8:	210b      	movs	r1, #11
    34aa:	1a08      	subs	r0, r1, r0
    34ac:	40c4      	lsrs	r4, r0
    34ae:	055b      	lsls	r3, r3, #21
    34b0:	0324      	lsls	r4, r4, #12
    34b2:	0b24      	lsrs	r4, r4, #12
    34b4:	0d5b      	lsrs	r3, r3, #21
    34b6:	e7e3      	b.n	3480 <__aeabi_i2d+0x30>
    34b8:	2500      	movs	r5, #0
    34ba:	2300      	movs	r3, #0
    34bc:	2400      	movs	r4, #0
    34be:	2200      	movs	r2, #0
    34c0:	e7de      	b.n	3480 <__aeabi_i2d+0x30>
    34c2:	46c0      	nop			; (mov r8, r8)
    34c4:	0000041e 	.word	0x0000041e
    34c8:	00000433 	.word	0x00000433
    34cc:	00000413 	.word	0x00000413
    34d0:	800fffff 	.word	0x800fffff

000034d4 <__clzsi2>:
    34d4:	211c      	movs	r1, #28
    34d6:	2301      	movs	r3, #1
    34d8:	041b      	lsls	r3, r3, #16
    34da:	4298      	cmp	r0, r3
    34dc:	d301      	bcc.n	34e2 <__clzsi2+0xe>
    34de:	0c00      	lsrs	r0, r0, #16
    34e0:	3910      	subs	r1, #16
    34e2:	0a1b      	lsrs	r3, r3, #8
    34e4:	4298      	cmp	r0, r3
    34e6:	d301      	bcc.n	34ec <__clzsi2+0x18>
    34e8:	0a00      	lsrs	r0, r0, #8
    34ea:	3908      	subs	r1, #8
    34ec:	091b      	lsrs	r3, r3, #4
    34ee:	4298      	cmp	r0, r3
    34f0:	d301      	bcc.n	34f6 <__clzsi2+0x22>
    34f2:	0900      	lsrs	r0, r0, #4
    34f4:	3904      	subs	r1, #4
    34f6:	a202      	add	r2, pc, #8	; (adr r2, 3500 <__clzsi2+0x2c>)
    34f8:	5c10      	ldrb	r0, [r2, r0]
    34fa:	1840      	adds	r0, r0, r1
    34fc:	4770      	bx	lr
    34fe:	46c0      	nop			; (mov r8, r8)
    3500:	02020304 	.word	0x02020304
    3504:	01010101 	.word	0x01010101
	...

00003510 <__libc_init_array>:
    3510:	4b0e      	ldr	r3, [pc, #56]	; (354c <__libc_init_array+0x3c>)
    3512:	b570      	push	{r4, r5, r6, lr}
    3514:	2500      	movs	r5, #0
    3516:	001e      	movs	r6, r3
    3518:	4c0d      	ldr	r4, [pc, #52]	; (3550 <__libc_init_array+0x40>)
    351a:	1ae4      	subs	r4, r4, r3
    351c:	10a4      	asrs	r4, r4, #2
    351e:	42a5      	cmp	r5, r4
    3520:	d004      	beq.n	352c <__libc_init_array+0x1c>
    3522:	00ab      	lsls	r3, r5, #2
    3524:	58f3      	ldr	r3, [r6, r3]
    3526:	4798      	blx	r3
    3528:	3501      	adds	r5, #1
    352a:	e7f8      	b.n	351e <__libc_init_array+0xe>
    352c:	f000 f944 	bl	37b8 <_init>
    3530:	4b08      	ldr	r3, [pc, #32]	; (3554 <__libc_init_array+0x44>)
    3532:	2500      	movs	r5, #0
    3534:	001e      	movs	r6, r3
    3536:	4c08      	ldr	r4, [pc, #32]	; (3558 <__libc_init_array+0x48>)
    3538:	1ae4      	subs	r4, r4, r3
    353a:	10a4      	asrs	r4, r4, #2
    353c:	42a5      	cmp	r5, r4
    353e:	d004      	beq.n	354a <__libc_init_array+0x3a>
    3540:	00ab      	lsls	r3, r5, #2
    3542:	58f3      	ldr	r3, [r6, r3]
    3544:	4798      	blx	r3
    3546:	3501      	adds	r5, #1
    3548:	e7f8      	b.n	353c <__libc_init_array+0x2c>
    354a:	bd70      	pop	{r4, r5, r6, pc}
    354c:	000037c4 	.word	0x000037c4
    3550:	000037c4 	.word	0x000037c4
    3554:	000037c4 	.word	0x000037c4
    3558:	000037c8 	.word	0x000037c8

0000355c <npio2_hw>:
    355c:	3ff921fb 400921fb 4012d97c 401921fb     .!.?.!.@|..@.!.@
    356c:	401f6a7a 4022d97c 4025fdbb 402921fb     zj.@|."@..%@.!)@
    357c:	402c463a 402f6a7a 4031475c 4032d97c     :F,@zj/@\G1@|.2@
    358c:	40346b9c 4035fdbb 40378fdb 403921fb     .k4@..5@..7@.!9@
    359c:	403ab41b 403c463a 403dd85a 403f6a7a     ..:@:F<@Z.=@zj?@
    35ac:	40407e4c 4041475c 4042106c 4042d97c     L~@@\GA@l.B@|.B@
    35bc:	4043a28c 40446b9c 404534ac 4045fdbb     ..C@.kD@.4E@..E@
    35cc:	4046c6cb 40478fdb 404858eb 404921fb     ..F@..G@.XH@.!I@

000035dc <two_over_pi>:
    35dc:	00a2f983 006e4e44 001529fc 002757d1     ....DNn..)...W'.
    35ec:	00f534dd 00c0db62 0095993c 00439041     .4..b...<...A.C.
    35fc:	00fe5163 00abdebb 00c561b7 00246e3a     cQ.......a..:n$.
    360c:	00424dd2 00e00649 002eea09 00d1921c     .MB.I...........
    361c:	00fe1deb 001cb129 00a73ee8 008235f5     ....)....>...5..
    362c:	002ebb44 0084e99c 007026b4 005f7e41     D........&p.A~_.
    363c:	003991d6 00398353 0039f49c 00845f8b     ..9.S.9...9.._..
    364c:	00bdf928 003b1ff8 0097ffde 0005980f     (.....;.........
    365c:	00ef2f11 008b5a0a 006d1f6d 00367ecf     ./...Z..m.m..~6.
    366c:	0027cb09 00b74f46 003f669e 005fea2d     ..'.FO...f?.-._.
    367c:	007527ba 00c7ebe5 00f17b3d 000739f7     .'u.....={...9..
    368c:	008a5292 00ea6bfb 005fb11f 008d5d08     .R...k...._..]..
    369c:	00560330 0046fc7b 006babf0 00cfbc20     0.V.{.F...k. ...
    36ac:	009af436 001da9e3 0091615e 00e61b08     6.......^a......
    36bc:	00659985 005f14a0 0068408d 00ffd880     ..e..._..@h.....
    36cc:	004d7327 00310606 001556ca 0073a8c9     'sM...1..V....s.
    36dc:	0060e27b 00c08c6b                       {.`.k...

000036e4 <init_jk>:
    36e4:	00000002 00000003 00000004 00000006     ................
    36f4:	00000000                                ....

000036f8 <PIo2>:
    36f8:	40000000 3ff921fb 00000000 3e74442d     ...@.!.?....-Dt>
    3708:	80000000 3cf84698 60000000 3b78cc51     .....F.<...`Q.x;
    3718:	80000000 39f01b83 40000000 387a2520     .......9...@ %z8
    3728:	80000000 36e38222 00000000 3569f31d     ...."..6......i5
    3738:	000021f0 000020be 000021c4 000020b4     .!... ...!... ..
    3748:	000021c4 000021ce 000021c4 000020b4     .!...!...!... ..
    3758:	000020be 000020be 000021ce 000020b4     . ... ...!... ..
    3768:	000020aa 000020aa 000020aa 00002420     . ... ... .. $..
    3778:	00002a38 000028f8 000028f8 000028f6     8*...(...(...(..
    3788:	00002a10 00002a10 00002a02 000028f6     .*...*...*...(..
    3798:	00002a10 00002a02 00002a10 000028f6     .*...*...*...(..
    37a8:	00002a18 00002a18 00002a18 00002c18     .*...*...*...,..

000037b8 <_init>:
    37b8:	b5f8      	push	{r3, r4, r5, r6, r7, lr}
    37ba:	46c0      	nop			; (mov r8, r8)
    37bc:	bcf8      	pop	{r3, r4, r5, r6, r7}
    37be:	bc08      	pop	{r3}
    37c0:	469e      	mov	lr, r3
    37c2:	4770      	bx	lr

000037c4 <__init_array_start>:
    37c4:	000000cd 	.word	0x000000cd

000037c8 <_fini>:
    37c8:	b5f8      	push	{r3, r4, r5, r6, r7, lr}
    37ca:	46c0      	nop			; (mov r8, r8)
    37cc:	bcf8      	pop	{r3, r4, r5, r6, r7}
    37ce:	bc08      	pop	{r3}
    37d0:	469e      	mov	lr, r3
    37d2:	4770      	bx	lr

000037d4 <__fini_array_start>:
    37d4:	000000a5 	.word	0x000000a5
